
userspace/apps/desktop/desktop.o:     file format elf64-x86-64


Disassembly of section .ltext:

0000000000000000 <_Z11InitWindowsv>:
       0:	55                   	push   rbp
       1:	48 89 e5             	mov    rbp,rsp
       4:	48 83 ec 38          	sub    rsp,0x38
       8:	c7 45 c8 a0 00 00 00 	mov    DWORD PTR [rbp-0x38],0xa0
       f:	c7 45 cc a0 00 00 00 	mov    DWORD PTR [rbp-0x34],0xa0
      16:	c7 45 d0 08 02 00 00 	mov    DWORD PTR [rbp-0x30],0x208
      1d:	c7 45 d4 04 01 00 00 	mov    DWORD PTR [rbp-0x2c],0x104
      24:	c7 45 d8 a0 80 40 ff 	mov    DWORD PTR [rbp-0x28],0xff4080a0
      2b:	48 b8 00 00 00 00 00 	movabs rax,0x0
      32:	00 00 00 
      35:	48 89 45 e0          	mov    QWORD PTR [rbp-0x20],rax
      39:	c6 45 e8 00          	mov    BYTE PTR [rbp-0x18],0x0
      3d:	c6 45 e9 00          	mov    BYTE PTR [rbp-0x17],0x0
      41:	c6 45 ea 00          	mov    BYTE PTR [rbp-0x16],0x0
      45:	c7 45 ec 00 00 00 00 	mov    DWORD PTR [rbp-0x14],0x0
      4c:	c7 45 f0 00 00 00 00 	mov    DWORD PTR [rbp-0x10],0x0
      53:	c7 45 f4 00 00 00 00 	mov    DWORD PTR [rbp-0xc],0x0
      5a:	c7 45 f8 00 00 00 00 	mov    DWORD PTR [rbp-0x8],0x0
      61:	48 8b 4d f8          	mov    rcx,QWORD PTR [rbp-0x8]
      65:	48 b8 00 00 00 00 00 	movabs rax,0x0
      6c:	00 00 00 
      6f:	48 89 08             	mov    QWORD PTR [rax],rcx
      72:	0f 10 45 c8          	movups xmm0,XMMWORD PTR [rbp-0x38]
      76:	0f 10 4d d8          	movups xmm1,XMMWORD PTR [rbp-0x28]
      7a:	0f 10 55 e8          	movups xmm2,XMMWORD PTR [rbp-0x18]
      7e:	48 b8 00 00 00 00 00 	movabs rax,0x0
      85:	00 00 00 
      88:	0f 11 10             	movups XMMWORD PTR [rax],xmm2
      8b:	48 b8 00 00 00 00 00 	movabs rax,0x0
      92:	00 00 00 
      95:	0f 11 08             	movups XMMWORD PTR [rax],xmm1
      98:	48 b8 00 00 00 00 00 	movabs rax,0x0
      9f:	00 00 00 
      a2:	0f 11 00             	movups XMMWORD PTR [rax],xmm0
      a5:	48 b8 00 00 00 00 00 	movabs rax,0x0
      ac:	00 00 00 
      af:	c7 00 01 00 00 00    	mov    DWORD PTR [rax],0x1
      b5:	48 83 c4 38          	add    rsp,0x38
      b9:	5d                   	pop    rbp
      ba:	c3                   	ret
      bb:	0f 1f 44 00 00       	nop    DWORD PTR [rax+rax*1+0x0]

00000000000000c0 <_Z10OpenWindowPKciij>:
      c0:	55                   	push   rbp
      c1:	48 89 e5             	mov    rbp,rsp
      c4:	48 83 ec 50          	sub    rsp,0x50
      c8:	48 89 7d f8          	mov    QWORD PTR [rbp-0x8],rdi
      cc:	89 75 f4             	mov    DWORD PTR [rbp-0xc],esi
      cf:	89 55 f0             	mov    DWORD PTR [rbp-0x10],edx
      d2:	89 4d ec             	mov    DWORD PTR [rbp-0x14],ecx
      d5:	48 b8 00 00 00 00 00 	movabs rax,0x0
      dc:	00 00 00 
      df:	8b 00                	mov    eax,DWORD PTR [rax]
      e1:	83 f8 0a             	cmp    eax,0xa
      e4:	0f 8c 05 00 00 00    	jl     ef <_Z10OpenWindowPKciij+0x2f>
      ea:	e9 7d 01 00 00       	jmp    26c <_Z10OpenWindowPKciij+0x1ac>
      ef:	c7 45 e8 00 00 00 00 	mov    DWORD PTR [rbp-0x18],0x0
      f6:	8b 45 e8             	mov    eax,DWORD PTR [rbp-0x18]
      f9:	48 b9 00 00 00 00 00 	movabs rcx,0x0
     100:	00 00 00 
     103:	8b 09                	mov    ecx,DWORD PTR [rcx]
     105:	39 c8                	cmp    eax,ecx
     107:	0f 8d 8b 00 00 00    	jge    198 <_Z10OpenWindowPKciij+0xd8>
     10d:	48 63 45 e8          	movsxd rax,DWORD PTR [rbp-0x18]
     111:	48 6b c0 38          	imul   rax,rax,0x38
     115:	48 b9 00 00 00 00 00 	movabs rcx,0x0
     11c:	00 00 00 
     11f:	48 01 c8             	add    rax,rcx
     122:	48 83 78 18 00       	cmp    QWORD PTR [rax+0x18],0x0
     127:	0f 84 58 00 00 00    	je     185 <_Z10OpenWindowPKciij+0xc5>
     12d:	48 63 45 e8          	movsxd rax,DWORD PTR [rbp-0x18]
     131:	48 6b c0 38          	imul   rax,rax,0x38
     135:	48 b9 00 00 00 00 00 	movabs rcx,0x0
     13c:	00 00 00 
     13f:	48 01 c8             	add    rax,rcx
     142:	48 8b 40 18          	mov    rax,QWORD PTR [rax+0x18]
     146:	0f be 00             	movsx  eax,BYTE PTR [rax]
     149:	48 8b 4d f8          	mov    rcx,QWORD PTR [rbp-0x8]
     14d:	0f be 09             	movsx  ecx,BYTE PTR [rcx]
     150:	39 c8                	cmp    eax,ecx
     152:	0f 85 2d 00 00 00    	jne    185 <_Z10OpenWindowPKciij+0xc5>
     158:	48 63 45 e8          	movsxd rax,DWORD PTR [rbp-0x18]
     15c:	48 6b c0 38          	imul   rax,rax,0x38
     160:	48 b9 00 00 00 00 00 	movabs rcx,0x0
     167:	00 00 00 
     16a:	48 01 c8             	add    rax,rcx
     16d:	c6 40 21 00          	mov    BYTE PTR [rax+0x21],0x0
     171:	8b 7d e8             	mov    edi,DWORD PTR [rbp-0x18]
     174:	48 b8 00 00 00 00 00 	movabs rax,0x0
     17b:	00 00 00 
     17e:	ff d0                	call   rax
     180:	e9 e7 00 00 00       	jmp    26c <_Z10OpenWindowPKciij+0x1ac>
     185:	e9 00 00 00 00       	jmp    18a <_Z10OpenWindowPKciij+0xca>
     18a:	8b 45 e8             	mov    eax,DWORD PTR [rbp-0x18]
     18d:	83 c0 01             	add    eax,0x1
     190:	89 45 e8             	mov    DWORD PTR [rbp-0x18],eax
     193:	e9 5e ff ff ff       	jmp    f6 <_Z10OpenWindowPKciij+0x36>
     198:	48 b8 00 00 00 00 00 	movabs rax,0x0
     19f:	00 00 00 
     1a2:	8b 10                	mov    edx,DWORD PTR [rax]
     1a4:	89 d1                	mov    ecx,edx
     1a6:	8d 14 89             	lea    edx,[rcx+rcx*4]
     1a9:	89 d1                	mov    ecx,edx
     1ab:	8d 0c 8d 64 00 00 00 	lea    ecx,[rcx*4+0x64]
     1b2:	89 4d b0             	mov    DWORD PTR [rbp-0x50],ecx
     1b5:	8b 10                	mov    edx,DWORD PTR [rax]
     1b7:	89 d1                	mov    ecx,edx
     1b9:	8d 14 89             	lea    edx,[rcx+rcx*4]
     1bc:	89 d1                	mov    ecx,edx
     1be:	8d 0c 8d 64 00 00 00 	lea    ecx,[rcx*4+0x64]
     1c5:	89 4d b4             	mov    DWORD PTR [rbp-0x4c],ecx
     1c8:	8b 4d f4             	mov    ecx,DWORD PTR [rbp-0xc]
     1cb:	89 4d b8             	mov    DWORD PTR [rbp-0x48],ecx
     1ce:	8b 4d f0             	mov    ecx,DWORD PTR [rbp-0x10]
     1d1:	89 4d bc             	mov    DWORD PTR [rbp-0x44],ecx
     1d4:	8b 4d ec             	mov    ecx,DWORD PTR [rbp-0x14]
     1d7:	89 4d c0             	mov    DWORD PTR [rbp-0x40],ecx
     1da:	48 8b 4d f8          	mov    rcx,QWORD PTR [rbp-0x8]
     1de:	48 89 4d c8          	mov    QWORD PTR [rbp-0x38],rcx
     1e2:	c6 45 d0 00          	mov    BYTE PTR [rbp-0x30],0x0
     1e6:	c6 45 d1 00          	mov    BYTE PTR [rbp-0x2f],0x0
     1ea:	c6 45 d2 00          	mov    BYTE PTR [rbp-0x2e],0x0
     1ee:	c7 45 d4 00 00 00 00 	mov    DWORD PTR [rbp-0x2c],0x0
     1f5:	c7 45 d8 00 00 00 00 	mov    DWORD PTR [rbp-0x28],0x0
     1fc:	c7 45 dc 00 00 00 00 	mov    DWORD PTR [rbp-0x24],0x0
     203:	c7 45 e0 00 00 00 00 	mov    DWORD PTR [rbp-0x20],0x0
     20a:	48 63 08             	movsxd rcx,DWORD PTR [rax]
     20d:	48 6b c9 38          	imul   rcx,rcx,0x38
     211:	48 ba 00 00 00 00 00 	movabs rdx,0x0
     218:	00 00 00 
     21b:	48 8b 7d e0          	mov    rdi,QWORD PTR [rbp-0x20]
     21f:	48 be 00 00 00 00 00 	movabs rsi,0x0
     226:	00 00 00 
     229:	48 89 3c 31          	mov    QWORD PTR [rcx+rsi*1],rdi
     22d:	0f 10 45 b0          	movups xmm0,XMMWORD PTR [rbp-0x50]
     231:	0f 10 4d c0          	movups xmm1,XMMWORD PTR [rbp-0x40]
     235:	0f 10 55 d0          	movups xmm2,XMMWORD PTR [rbp-0x30]
     239:	48 be 00 00 00 00 00 	movabs rsi,0x0
     240:	00 00 00 
     243:	0f 11 14 31          	movups XMMWORD PTR [rcx+rsi*1],xmm2
     247:	48 be 00 00 00 00 00 	movabs rsi,0x0
     24e:	00 00 00 
     251:	0f 11 0c 31          	movups XMMWORD PTR [rcx+rsi*1],xmm1
     255:	0f 11 04 11          	movups XMMWORD PTR [rcx+rdx*1],xmm0
     259:	8b 08                	mov    ecx,DWORD PTR [rax]
     25b:	ff c1                	inc    ecx
     25d:	89 08                	mov    DWORD PTR [rax],ecx
     25f:	48 b8 00 00 00 00 00 	movabs rax,0x0
     266:	00 00 00 
     269:	c6 00 01             	mov    BYTE PTR [rax],0x1
     26c:	48 83 c4 50          	add    rsp,0x50
     270:	5d                   	pop    rbp
     271:	c3                   	ret
     272:	66 66 66 66 66 2e 0f 	data16 data16 data16 data16 cs nop WORD PTR [rax+rax*1+0x0]
     279:	1f 84 00 00 00 00 00 

0000000000000280 <_ZL12BringToFronti>:
     280:	55                   	push   rbp
     281:	48 89 e5             	mov    rbp,rsp
     284:	48 83 ec 50          	sub    rsp,0x50
     288:	89 7d fc             	mov    DWORD PTR [rbp-0x4],edi
     28b:	83 7d fc 00          	cmp    DWORD PTR [rbp-0x4],0x0
     28f:	0f 8c 17 00 00 00    	jl     2ac <_ZL12BringToFronti+0x2c>
     295:	8b 45 fc             	mov    eax,DWORD PTR [rbp-0x4]
     298:	48 b9 00 00 00 00 00 	movabs rcx,0x0
     29f:	00 00 00 
     2a2:	8b 09                	mov    ecx,DWORD PTR [rcx]
     2a4:	39 c8                	cmp    eax,ecx
     2a6:	0f 8c 05 00 00 00    	jl     2b1 <_ZL12BringToFronti+0x31>
     2ac:	e9 2b 01 00 00       	jmp    3dc <_ZL12BringToFronti+0x15c>
     2b1:	8b 45 fc             	mov    eax,DWORD PTR [rbp-0x4]
     2b4:	48 b9 00 00 00 00 00 	movabs rcx,0x0
     2bb:	00 00 00 
     2be:	8b 09                	mov    ecx,DWORD PTR [rcx]
     2c0:	83 e9 01             	sub    ecx,0x1
     2c3:	39 c8                	cmp    eax,ecx
     2c5:	0f 85 05 00 00 00    	jne    2d0 <_ZL12BringToFronti+0x50>
     2cb:	e9 0c 01 00 00       	jmp    3dc <_ZL12BringToFronti+0x15c>
     2d0:	48 63 45 fc          	movsxd rax,DWORD PTR [rbp-0x4]
     2d4:	48 6b c0 38          	imul   rax,rax,0x38
     2d8:	48 b9 00 00 00 00 00 	movabs rcx,0x0
     2df:	00 00 00 
     2e2:	48 01 c8             	add    rax,rcx
     2e5:	48 8b 48 30          	mov    rcx,QWORD PTR [rax+0x30]
     2e9:	48 89 4d f0          	mov    QWORD PTR [rbp-0x10],rcx
     2ed:	0f 10 00             	movups xmm0,XMMWORD PTR [rax]
     2f0:	0f 10 48 10          	movups xmm1,XMMWORD PTR [rax+0x10]
     2f4:	0f 10 50 20          	movups xmm2,XMMWORD PTR [rax+0x20]
     2f8:	0f 29 55 e0          	movaps XMMWORD PTR [rbp-0x20],xmm2
     2fc:	0f 29 4d d0          	movaps XMMWORD PTR [rbp-0x30],xmm1
     300:	0f 29 45 c0          	movaps XMMWORD PTR [rbp-0x40],xmm0
     304:	8b 45 fc             	mov    eax,DWORD PTR [rbp-0x4]
     307:	89 45 bc             	mov    DWORD PTR [rbp-0x44],eax
     30a:	8b 45 bc             	mov    eax,DWORD PTR [rbp-0x44]
     30d:	48 b9 00 00 00 00 00 	movabs rcx,0x0
     314:	00 00 00 
     317:	8b 09                	mov    ecx,DWORD PTR [rcx]
     319:	83 e9 01             	sub    ecx,0x1
     31c:	39 c8                	cmp    eax,ecx
     31e:	0f 8d 4f 00 00 00    	jge    373 <_ZL12BringToFronti+0xf3>
     324:	48 63 45 bc          	movsxd rax,DWORD PTR [rbp-0x44]
     328:	89 c1                	mov    ecx,eax
     32a:	ff c1                	inc    ecx
     32c:	48 63 c9             	movsxd rcx,ecx
     32f:	48 6b c9 38          	imul   rcx,rcx,0x38
     333:	48 ba 00 00 00 00 00 	movabs rdx,0x0
     33a:	00 00 00 
     33d:	48 01 d1             	add    rcx,rdx
     340:	48 6b c0 38          	imul   rax,rax,0x38
     344:	48 01 d0             	add    rax,rdx
     347:	48 8b 51 30          	mov    rdx,QWORD PTR [rcx+0x30]
     34b:	48 89 50 30          	mov    QWORD PTR [rax+0x30],rdx
     34f:	0f 10 01             	movups xmm0,XMMWORD PTR [rcx]
     352:	0f 10 49 10          	movups xmm1,XMMWORD PTR [rcx+0x10]
     356:	0f 10 51 20          	movups xmm2,XMMWORD PTR [rcx+0x20]
     35a:	0f 11 50 20          	movups XMMWORD PTR [rax+0x20],xmm2
     35e:	0f 11 48 10          	movups XMMWORD PTR [rax+0x10],xmm1
     362:	0f 11 00             	movups XMMWORD PTR [rax],xmm0
     365:	8b 45 bc             	mov    eax,DWORD PTR [rbp-0x44]
     368:	83 c0 01             	add    eax,0x1
     36b:	89 45 bc             	mov    DWORD PTR [rbp-0x44],eax
     36e:	e9 97 ff ff ff       	jmp    30a <_ZL12BringToFronti+0x8a>
     373:	48 b8 00 00 00 00 00 	movabs rax,0x0
     37a:	00 00 00 
     37d:	8b 00                	mov    eax,DWORD PTR [rax]
     37f:	ff c8                	dec    eax
     381:	48 98                	cdqe
     383:	48 6b c0 38          	imul   rax,rax,0x38
     387:	48 b9 00 00 00 00 00 	movabs rcx,0x0
     38e:	00 00 00 
     391:	48 8b 75 f0          	mov    rsi,QWORD PTR [rbp-0x10]
     395:	48 ba 00 00 00 00 00 	movabs rdx,0x0
     39c:	00 00 00 
     39f:	48 89 34 10          	mov    QWORD PTR [rax+rdx*1],rsi
     3a3:	0f 28 45 c0          	movaps xmm0,XMMWORD PTR [rbp-0x40]
     3a7:	0f 28 4d d0          	movaps xmm1,XMMWORD PTR [rbp-0x30]
     3ab:	0f 28 55 e0          	movaps xmm2,XMMWORD PTR [rbp-0x20]
     3af:	48 ba 00 00 00 00 00 	movabs rdx,0x0
     3b6:	00 00 00 
     3b9:	0f 11 14 10          	movups XMMWORD PTR [rax+rdx*1],xmm2
     3bd:	48 ba 00 00 00 00 00 	movabs rdx,0x0
     3c4:	00 00 00 
     3c7:	0f 11 0c 10          	movups XMMWORD PTR [rax+rdx*1],xmm1
     3cb:	0f 11 04 08          	movups XMMWORD PTR [rax+rcx*1],xmm0
     3cf:	48 b8 00 00 00 00 00 	movabs rax,0x0
     3d6:	00 00 00 
     3d9:	c6 00 01             	mov    BYTE PTR [rax],0x1
     3dc:	48 83 c4 50          	add    rsp,0x50
     3e0:	5d                   	pop    rbp
     3e1:	c3                   	ret
     3e2:	66 66 66 66 66 2e 0f 	data16 data16 data16 data16 cs nop WORD PTR [rax+rax*1+0x0]
     3e9:	1f 84 00 00 00 00 00 

00000000000003f0 <_Z16UppercaseInplacePc>:
     3f0:	55                   	push   rbp
     3f1:	48 89 e5             	mov    rbp,rsp
     3f4:	48 83 ec 10          	sub    rsp,0x10
     3f8:	48 89 7d f8          	mov    QWORD PTR [rbp-0x8],rdi
     3fc:	48 83 7d f8 00       	cmp    QWORD PTR [rbp-0x8],0x0
     401:	0f 85 05 00 00 00    	jne    40c <_Z16UppercaseInplacePc+0x1c>
     407:	e9 1a 01 00 00       	jmp    526 <_Z16UppercaseInplacePc+0x136>
     40c:	e9 00 00 00 00       	jmp    411 <_Z16UppercaseInplacePc+0x21>
     411:	48 8b 45 f8          	mov    rax,QWORD PTR [rbp-0x8]
     415:	80 38 00             	cmp    BYTE PTR [rax],0x0
     418:	0f 84 08 01 00 00    	je     526 <_Z16UppercaseInplacePc+0x136>
     41e:	48 8b 45 f8          	mov    rax,QWORD PTR [rbp-0x8]
     422:	0f be 00             	movsx  eax,BYTE PTR [rax]
     425:	83 f8 61             	cmp    eax,0x61
     428:	0f 8c 22 00 00 00    	jl     450 <_Z16UppercaseInplacePc+0x60>
     42e:	48 8b 45 f8          	mov    rax,QWORD PTR [rbp-0x8]
     432:	0f be 00             	movsx  eax,BYTE PTR [rax]
     435:	83 f8 7a             	cmp    eax,0x7a
     438:	0f 8f 12 00 00 00    	jg     450 <_Z16UppercaseInplacePc+0x60>
     43e:	48 8b 45 f8          	mov    rax,QWORD PTR [rbp-0x8]
     442:	0f be 00             	movsx  eax,BYTE PTR [rax]
     445:	83 e8 20             	sub    eax,0x20
     448:	88 c1                	mov    cl,al
     44a:	48 8b 45 f8          	mov    rax,QWORD PTR [rbp-0x8]
     44e:	88 08                	mov    BYTE PTR [rax],cl
     450:	48 8b 45 f8          	mov    rax,QWORD PTR [rbp-0x8]
     454:	8a 00                	mov    al,BYTE PTR [rax]
     456:	88 45 f7             	mov    BYTE PTR [rbp-0x9],al
     459:	0f be 4d f7          	movsx  ecx,BYTE PTR [rbp-0x9]
     45d:	b0 01                	mov    al,0x1
     45f:	83 f9 20             	cmp    ecx,0x20
     462:	88 45 f5             	mov    BYTE PTR [rbp-0xb],al
     465:	0f 84 8c 00 00 00    	je     4f7 <_Z16UppercaseInplacePc+0x107>
     46b:	0f be 4d f7          	movsx  ecx,BYTE PTR [rbp-0x9]
     46f:	b0 01                	mov    al,0x1
     471:	83 f9 3a             	cmp    ecx,0x3a
     474:	88 45 f5             	mov    BYTE PTR [rbp-0xb],al
     477:	0f 84 7a 00 00 00    	je     4f7 <_Z16UppercaseInplacePc+0x107>
     47d:	0f be 4d f7          	movsx  ecx,BYTE PTR [rbp-0x9]
     481:	b0 01                	mov    al,0x1
     483:	83 f9 2d             	cmp    ecx,0x2d
     486:	88 45 f5             	mov    BYTE PTR [rbp-0xb],al
     489:	0f 84 68 00 00 00    	je     4f7 <_Z16UppercaseInplacePc+0x107>
     48f:	0f be 4d f7          	movsx  ecx,BYTE PTR [rbp-0x9]
     493:	b0 01                	mov    al,0x1
     495:	83 f9 2f             	cmp    ecx,0x2f
     498:	88 45 f5             	mov    BYTE PTR [rbp-0xb],al
     49b:	0f 84 56 00 00 00    	je     4f7 <_Z16UppercaseInplacePc+0x107>
     4a1:	0f be 4d f7          	movsx  ecx,BYTE PTR [rbp-0x9]
     4a5:	b0 01                	mov    al,0x1
     4a7:	83 f9 2e             	cmp    ecx,0x2e
     4aa:	88 45 f5             	mov    BYTE PTR [rbp-0xb],al
     4ad:	0f 84 44 00 00 00    	je     4f7 <_Z16UppercaseInplacePc+0x107>
     4b3:	0f be 45 f7          	movsx  eax,BYTE PTR [rbp-0x9]
     4b7:	83 f8 30             	cmp    eax,0x30
     4ba:	0f 8c 12 00 00 00    	jl     4d2 <_Z16UppercaseInplacePc+0xe2>
     4c0:	0f be 4d f7          	movsx  ecx,BYTE PTR [rbp-0x9]
     4c4:	b0 01                	mov    al,0x1
     4c6:	83 f9 39             	cmp    ecx,0x39
     4c9:	88 45 f5             	mov    BYTE PTR [rbp-0xb],al
     4cc:	0f 8e 25 00 00 00    	jle    4f7 <_Z16UppercaseInplacePc+0x107>
     4d2:	0f be 4d f7          	movsx  ecx,BYTE PTR [rbp-0x9]
     4d6:	31 c0                	xor    eax,eax
     4d8:	83 f9 41             	cmp    ecx,0x41
     4db:	88 45 f4             	mov    BYTE PTR [rbp-0xc],al
     4de:	0f 8c 0d 00 00 00    	jl     4f1 <_Z16UppercaseInplacePc+0x101>
     4e4:	0f be 45 f7          	movsx  eax,BYTE PTR [rbp-0x9]
     4e8:	83 f8 5a             	cmp    eax,0x5a
     4eb:	0f 9e c0             	setle  al
     4ee:	88 45 f4             	mov    BYTE PTR [rbp-0xc],al
     4f1:	8a 45 f4             	mov    al,BYTE PTR [rbp-0xc]
     4f4:	88 45 f5             	mov    BYTE PTR [rbp-0xb],al
     4f7:	8a 45 f5             	mov    al,BYTE PTR [rbp-0xb]
     4fa:	24 01                	and    al,0x1
     4fc:	88 45 f6             	mov    BYTE PTR [rbp-0xa],al
     4ff:	f6 45 f6 01          	test   BYTE PTR [rbp-0xa],0x1
     503:	0f 85 07 00 00 00    	jne    510 <_Z16UppercaseInplacePc+0x120>
     509:	48 8b 45 f8          	mov    rax,QWORD PTR [rbp-0x8]
     50d:	c6 00 20             	mov    BYTE PTR [rax],0x20
     510:	e9 00 00 00 00       	jmp    515 <_Z16UppercaseInplacePc+0x125>
     515:	48 8b 45 f8          	mov    rax,QWORD PTR [rbp-0x8]
     519:	48 83 c0 01          	add    rax,0x1
     51d:	48 89 45 f8          	mov    QWORD PTR [rbp-0x8],rax
     521:	e9 eb fe ff ff       	jmp    411 <_Z16UppercaseInplacePc+0x21>
     526:	48 83 c4 10          	add    rsp,0x10
     52a:	5d                   	pop    rbp
     52b:	c3                   	ret
     52c:	0f 1f 40 00          	nop    DWORD PTR [rax+0x0]

0000000000000530 <_Z20FetchExternalWindowsv>:
     530:	55                   	push   rbp
     531:	48 89 e5             	mov    rbp,rsp
     534:	48 bf 00 00 00 00 00 	movabs rdi,0x0
     53b:	00 00 00 
     53e:	48 b8 00 00 00 00 00 	movabs rax,0x0
     545:	00 00 00 
     548:	be 20 00 00 00       	mov    esi,0x20
     54d:	ff d0                	call   rax
     54f:	89 c1                	mov    ecx,eax
     551:	48 b8 00 00 00 00 00 	movabs rax,0x0
     558:	00 00 00 
     55b:	89 08                	mov    DWORD PTR [rax],ecx
     55d:	5d                   	pop    rbp
     55e:	c3                   	ret
     55f:	90                   	nop

0000000000000560 <_Z11CycleKeymapv>:
     560:	55                   	push   rbp
     561:	48 89 e5             	mov    rbp,rsp
     564:	48 83 ec 10          	sub    rsp,0x10
     568:	48 b8 00 00 00 00 00 	movabs rax,0x0
     56f:	00 00 00 
     572:	8b 30                	mov    esi,DWORD PTR [rax]
     574:	89 f2                	mov    edx,esi
     576:	ff c2                	inc    edx
     578:	89 f1                	mov    ecx,esi
     57a:	48 63 d2             	movsxd rdx,edx
     57d:	48 69 f2 56 55 55 55 	imul   rsi,rdx,0x55555556
     584:	48 89 f2             	mov    rdx,rsi
     587:	48 c1 ea 3f          	shr    rdx,0x3f
     58b:	48 c1 ee 20          	shr    rsi,0x20
     58f:	01 d6                	add    esi,edx
     591:	89 f2                	mov    edx,esi
     593:	8d 34 52             	lea    esi,[rdx+rdx*2]
     596:	f7 de                	neg    esi
     598:	89 f2                	mov    edx,esi
     59a:	8d 4c 11 01          	lea    ecx,[rcx+rdx*1+0x1]
     59e:	89 08                	mov    DWORD PTR [rax],ecx
     5a0:	48 63 08             	movsxd rcx,DWORD PTR [rax]
     5a3:	48 b8 00 00 00 00 00 	movabs rax,0x0
     5aa:	00 00 00 
     5ad:	48 8b 04 c8          	mov    rax,QWORD PTR [rax+rcx*8]
     5b1:	48 89 45 f8          	mov    QWORD PTR [rbp-0x8],rax
     5b5:	48 8b 7d f8          	mov    rdi,QWORD PTR [rbp-0x8]
     5b9:	48 b8 00 00 00 00 00 	movabs rax,0x0
     5c0:	00 00 00 
     5c3:	ff d0                	call   rax
     5c5:	48 bf 00 00 00 00 00 	movabs rdi,0x0
     5cc:	00 00 00 
     5cf:	48 b8 00 00 00 00 00 	movabs rax,0x0
     5d6:	00 00 00 
     5d9:	48 89 45 f0          	mov    QWORD PTR [rbp-0x10],rax
     5dd:	ff d0                	call   rax
     5df:	48 8b 45 f0          	mov    rax,QWORD PTR [rbp-0x10]
     5e3:	48 8b 7d f8          	mov    rdi,QWORD PTR [rbp-0x8]
     5e7:	ff d0                	call   rax
     5e9:	48 8b 45 f0          	mov    rax,QWORD PTR [rbp-0x10]
     5ed:	48 bf 00 00 00 00 00 	movabs rdi,0x0
     5f4:	00 00 00 
     5f7:	ff d0                	call   rax
     5f9:	48 b8 00 00 00 00 00 	movabs rax,0x0
     600:	00 00 00 
     603:	c6 00 01             	mov    BYTE PTR [rax],0x1
     606:	48 83 c4 10          	add    rsp,0x10
     60a:	5d                   	pop    rbp
     60b:	c3                   	ret
     60c:	0f 1f 40 00          	nop    DWORD PTR [rax+0x0]

0000000000000610 <_Z11HandleEventRK7OSEvent>:
     610:	55                   	push   rbp
     611:	48 89 e5             	mov    rbp,rsp
     614:	48 81 ec 10 01 00 00 	sub    rsp,0x110
     61b:	48 89 7d f8          	mov    QWORD PTR [rbp-0x8],rdi
     61f:	48 8b 45 f8          	mov    rax,QWORD PTR [rbp-0x8]
     623:	83 38 03             	cmp    DWORD PTR [rax],0x3
     626:	0f 85 b2 00 00 00    	jne    6de <_Z11HandleEventRK7OSEvent+0xce>
     62c:	48 b8 00 00 00 00 00 	movabs rax,0x0
     633:	00 00 00 
     636:	48 8b 00             	mov    rax,QWORD PTR [rax]
     639:	48 83 f8 00          	cmp    rax,0x0
     63d:	0f 84 35 00 00 00    	je     678 <_Z11HandleEventRK7OSEvent+0x68>
     643:	48 8b 45 f8          	mov    rax,QWORD PTR [rbp-0x8]
     647:	48 8b 48 10          	mov    rcx,QWORD PTR [rax+0x10]
     64b:	48 89 4d f0          	mov    QWORD PTR [rbp-0x10],rcx
     64f:	0f 10 00             	movups xmm0,XMMWORD PTR [rax]
     652:	0f 29 45 e0          	movaps XMMWORD PTR [rbp-0x20],xmm0
     656:	48 b8 00 00 00 00 00 	movabs rax,0x0
     65d:	00 00 00 
     660:	48 8b 38             	mov    rdi,QWORD PTR [rax]
     663:	48 b8 00 00 00 00 00 	movabs rax,0x0
     66a:	00 00 00 
     66d:	48 8d 75 e0          	lea    rsi,[rbp-0x20]
     671:	ff d0                	call   rax
     673:	e9 1f 0c 00 00       	jmp    1297 <_Z11HandleEventRK7OSEvent+0xc87>
     678:	48 b8 00 00 00 00 00 	movabs rax,0x0
     67f:	00 00 00 
     682:	8b 00                	mov    eax,DWORD PTR [rax]
     684:	83 f8 00             	cmp    eax,0x0
     687:	0f 8e 4c 00 00 00    	jle    6d9 <_Z11HandleEventRK7OSEvent+0xc9>
     68d:	48 b8 00 00 00 00 00 	movabs rax,0x0
     694:	00 00 00 
     697:	8b 00                	mov    eax,DWORD PTR [rax]
     699:	ff c8                	dec    eax
     69b:	48 98                	cdqe
     69d:	48 6b c0 38          	imul   rax,rax,0x38
     6a1:	48 b9 00 00 00 00 00 	movabs rcx,0x0
     6a8:	00 00 00 
     6ab:	48 01 c8             	add    rax,rcx
     6ae:	48 89 45 d8          	mov    QWORD PTR [rbp-0x28],rax
     6b2:	48 8b 45 d8          	mov    rax,QWORD PTR [rbp-0x28]
     6b6:	f6 40 21 01          	test   BYTE PTR [rax+0x21],0x1
     6ba:	0f 85 14 00 00 00    	jne    6d4 <_Z11HandleEventRK7OSEvent+0xc4>
     6c0:	48 8b 45 d8          	mov    rax,QWORD PTR [rbp-0x28]
     6c4:	48 83 78 18 00       	cmp    QWORD PTR [rax+0x18],0x0
     6c9:	0f 84 05 00 00 00    	je     6d4 <_Z11HandleEventRK7OSEvent+0xc4>
     6cf:	e9 00 00 00 00       	jmp    6d4 <_Z11HandleEventRK7OSEvent+0xc4>
     6d4:	e9 00 00 00 00       	jmp    6d9 <_Z11HandleEventRK7OSEvent+0xc9>
     6d9:	e9 00 00 00 00       	jmp    6de <_Z11HandleEventRK7OSEvent+0xce>
     6de:	48 8b 45 f8          	mov    rax,QWORD PTR [rbp-0x8]
     6e2:	83 38 02             	cmp    DWORD PTR [rax],0x2
     6e5:	0f 85 ec 09 00 00    	jne    10d7 <_Z11HandleEventRK7OSEvent+0xac7>
     6eb:	48 8b 45 f8          	mov    rax,QWORD PTR [rbp-0x8]
     6ef:	8a 48 0c             	mov    cl,BYTE PTR [rax+0xc]
     6f2:	80 e1 01             	and    cl,0x1
     6f5:	48 b8 00 00 00 00 00 	movabs rax,0x0
     6fc:	00 00 00 
     6ff:	88 08                	mov    BYTE PTR [rax],cl
     701:	8a 00                	mov    al,BYTE PTR [rax]
     703:	a8 01                	test   al,0x1
     705:	0f 85 26 00 00 00    	jne    731 <_Z11HandleEventRK7OSEvent+0x121>
     70b:	48 b8 00 00 00 00 00 	movabs rax,0x0
     712:	00 00 00 
     715:	c7 00 ff ff ff ff    	mov    DWORD PTR [rax],0xffffffff
     71b:	48 b8 00 00 00 00 00 	movabs rax,0x0
     722:	00 00 00 
     725:	48 c7 00 00 00 00 00 	mov    QWORD PTR [rax],0x0
     72c:	e9 a1 09 00 00       	jmp    10d2 <_Z11HandleEventRK7OSEvent+0xac2>
     731:	48 b8 00 00 00 00 00 	movabs rax,0x0
     738:	00 00 00 
     73b:	c7 00 ff ff ff ff    	mov    DWORD PTR [rax],0xffffffff
     741:	48 b8 00 00 00 00 00 	movabs rax,0x0
     748:	00 00 00 
     74b:	48 c7 00 00 00 00 00 	mov    QWORD PTR [rax],0x0
     752:	48 b8 00 00 00 00 00 	movabs rax,0x0
     759:	00 00 00 
     75c:	0f bf 00             	movsx  eax,WORD PTR [rax]
     75f:	89 45 d4             	mov    DWORD PTR [rbp-0x2c],eax
     762:	48 b8 00 00 00 00 00 	movabs rax,0x0
     769:	00 00 00 
     76c:	8b 00                	mov    eax,DWORD PTR [rax]
     76e:	c1 f8 10             	sar    eax,0x10
     771:	89 45 d0             	mov    DWORD PTR [rbp-0x30],eax
     774:	c7 45 cc 28 00 00 00 	mov    DWORD PTR [rbp-0x34],0x28
     77b:	48 b8 00 00 00 00 00 	movabs rax,0x0
     782:	00 00 00 
     785:	ff d0                	call   rax
     787:	83 e8 28             	sub    eax,0x28
     78a:	89 45 c8             	mov    DWORD PTR [rbp-0x38],eax
     78d:	8b 45 d0             	mov    eax,DWORD PTR [rbp-0x30]
     790:	3b 45 c8             	cmp    eax,DWORD PTR [rbp-0x38]
     793:	0f 8c 99 01 00 00    	jl     932 <_Z11HandleEventRK7OSEvent+0x322>
     799:	48 b8 00 00 00 00 00 	movabs rax,0x0
     7a0:	00 00 00 
     7a3:	ff d0                	call   rax
     7a5:	89 45 c4             	mov    DWORD PTR [rbp-0x3c],eax
     7a8:	8b 7d d4             	mov    edi,DWORD PTR [rbp-0x2c]
     7ab:	8b 75 d0             	mov    esi,DWORD PTR [rbp-0x30]
     7ae:	8b 55 c4             	mov    edx,DWORD PTR [rbp-0x3c]
     7b1:	81 ea e6 00 00 00    	sub    edx,0xe6
     7b7:	8b 4d c8             	mov    ecx,DWORD PTR [rbp-0x38]
     7ba:	83 c1 0a             	add    ecx,0xa
     7bd:	48 b8 00 00 00 00 00 	movabs rax,0x0
     7c4:	00 00 00 
     7c7:	41 b8 28 00 00 00    	mov    r8d,0x28
     7cd:	41 b9 1e 00 00 00    	mov    r9d,0x1e
     7d3:	ff d0                	call   rax
     7d5:	a8 01                	test   al,0x1
     7d7:	0f 85 05 00 00 00    	jne    7e2 <_Z11HandleEventRK7OSEvent+0x1d2>
     7dd:	e9 11 00 00 00       	jmp    7f3 <_Z11HandleEventRK7OSEvent+0x1e3>
     7e2:	48 b8 00 00 00 00 00 	movabs rax,0x0
     7e9:	00 00 00 
     7ec:	ff d0                	call   rax
     7ee:	e9 a4 0a 00 00       	jmp    1297 <_Z11HandleEventRK7OSEvent+0xc87>
     7f3:	48 b8 00 00 00 00 00 	movabs rax,0x0
     7fa:	00 00 00 
     7fd:	48 c7 00 00 00 00 00 	mov    QWORD PTR [rax],0x0
     804:	8b 7d d4             	mov    edi,DWORD PTR [rbp-0x2c]
     807:	8b 75 d0             	mov    esi,DWORD PTR [rbp-0x30]
     80a:	8b 4d c8             	mov    ecx,DWORD PTR [rbp-0x38]
     80d:	83 c1 08             	add    ecx,0x8
     810:	48 b8 00 00 00 00 00 	movabs rax,0x0
     817:	00 00 00 
     81a:	ba 0a 00 00 00       	mov    edx,0xa
     81f:	41 b8 1c 00 00 00    	mov    r8d,0x1c
     825:	41 b9 18 00 00 00    	mov    r9d,0x18
     82b:	ff d0                	call   rax
     82d:	a8 01                	test   al,0x1
     82f:	0f 85 05 00 00 00    	jne    83a <_Z11HandleEventRK7OSEvent+0x22a>
     835:	e9 25 00 00 00       	jmp    85f <_Z11HandleEventRK7OSEvent+0x24f>
     83a:	48 b8 00 00 00 00 00 	movabs rax,0x0
     841:	00 00 00 
     844:	8a 08                	mov    cl,BYTE PTR [rax]
     846:	f6 d1                	not    cl
     848:	80 e1 01             	and    cl,0x1
     84b:	88 08                	mov    BYTE PTR [rax],cl
     84d:	48 b8 00 00 00 00 00 	movabs rax,0x0
     854:	00 00 00 
     857:	c6 00 01             	mov    BYTE PTR [rax],0x1
     85a:	e9 38 0a 00 00       	jmp    1297 <_Z11HandleEventRK7OSEvent+0xc87>
     85f:	c7 45 c0 30 00 00 00 	mov    DWORD PTR [rbp-0x40],0x30
     866:	c7 45 bc 00 00 00 00 	mov    DWORD PTR [rbp-0x44],0x0
     86d:	8b 45 bc             	mov    eax,DWORD PTR [rbp-0x44]
     870:	48 b9 00 00 00 00 00 	movabs rcx,0x0
     877:	00 00 00 
     87a:	8b 09                	mov    ecx,DWORD PTR [rcx]
     87c:	39 c8                	cmp    eax,ecx
     87e:	0f 8d a9 00 00 00    	jge    92d <_Z11HandleEventRK7OSEvent+0x31d>
     884:	8b 7d d4             	mov    edi,DWORD PTR [rbp-0x2c]
     887:	8b 75 d0             	mov    esi,DWORD PTR [rbp-0x30]
     88a:	8b 55 c0             	mov    edx,DWORD PTR [rbp-0x40]
     88d:	8b 4d c8             	mov    ecx,DWORD PTR [rbp-0x38]
     890:	83 c1 08             	add    ecx,0x8
     893:	48 b8 00 00 00 00 00 	movabs rax,0x0
     89a:	00 00 00 
     89d:	41 b9 18 00 00 00    	mov    r9d,0x18
     8a3:	45 89 c8             	mov    r8d,r9d
     8a6:	ff d0                	call   rax
     8a8:	a8 01                	test   al,0x1
     8aa:	0f 85 05 00 00 00    	jne    8b5 <_Z11HandleEventRK7OSEvent+0x2a5>
     8b0:	e9 61 00 00 00       	jmp    916 <_Z11HandleEventRK7OSEvent+0x306>
     8b5:	48 63 45 bc          	movsxd rax,DWORD PTR [rbp-0x44]
     8b9:	48 6b c0 38          	imul   rax,rax,0x38
     8bd:	48 b9 00 00 00 00 00 	movabs rcx,0x0
     8c4:	00 00 00 
     8c7:	48 ba 00 00 00 00 00 	movabs rdx,0x0
     8ce:	00 00 00 
     8d1:	40 8a 34 10          	mov    sil,BYTE PTR [rax+rdx*1]
     8d5:	40 f6 d6             	not    sil
     8d8:	40 80 e6 01          	and    sil,0x1
     8dc:	40 88 34 10          	mov    BYTE PTR [rax+rdx*1],sil
     8e0:	48 b8 00 00 00 00 00 	movabs rax,0x0
     8e7:	00 00 00 
     8ea:	c6 00 01             	mov    BYTE PTR [rax],0x1
     8ed:	48 63 45 bc          	movsxd rax,DWORD PTR [rbp-0x44]
     8f1:	48 6b c0 38          	imul   rax,rax,0x38
     8f5:	48 01 c8             	add    rax,rcx
     8f8:	f6 40 21 01          	test   BYTE PTR [rax+0x21],0x1
     8fc:	0f 85 0f 00 00 00    	jne    911 <_Z11HandleEventRK7OSEvent+0x301>
     902:	8b 7d bc             	mov    edi,DWORD PTR [rbp-0x44]
     905:	48 b8 00 00 00 00 00 	movabs rax,0x0
     90c:	00 00 00 
     90f:	ff d0                	call   rax
     911:	e9 81 09 00 00       	jmp    1297 <_Z11HandleEventRK7OSEvent+0xc87>
     916:	8b 45 c0             	mov    eax,DWORD PTR [rbp-0x40]
     919:	83 c0 1e             	add    eax,0x1e
     91c:	89 45 c0             	mov    DWORD PTR [rbp-0x40],eax
     91f:	8b 45 bc             	mov    eax,DWORD PTR [rbp-0x44]
     922:	83 c0 01             	add    eax,0x1
     925:	89 45 bc             	mov    DWORD PTR [rbp-0x44],eax
     928:	e9 40 ff ff ff       	jmp    86d <_Z11HandleEventRK7OSEvent+0x25d>
     92d:	e9 65 09 00 00       	jmp    1297 <_Z11HandleEventRK7OSEvent+0xc87>
     932:	48 b8 00 00 00 00 00 	movabs rax,0x0
     939:	00 00 00 
     93c:	8a 00                	mov    al,BYTE PTR [rax]
     93e:	a8 01                	test   al,0x1
     940:	0f 84 67 00 00 00    	je     9ad <_Z11HandleEventRK7OSEvent+0x39d>
     946:	8b 75 d4             	mov    esi,DWORD PTR [rbp-0x2c]
     949:	8b 55 d0             	mov    edx,DWORD PTR [rbp-0x30]
     94c:	48 bf 00 00 00 00 00 	movabs rdi,0x0
     953:	00 00 00 
     956:	48 b8 00 00 00 00 00 	movabs rax,0x0
     95d:	00 00 00 
     960:	ff d0                	call   rax
     962:	a8 01                	test   al,0x1
     964:	0f 85 05 00 00 00    	jne    96f <_Z11HandleEventRK7OSEvent+0x35f>
     96a:	e9 1f 00 00 00       	jmp    98e <_Z11HandleEventRK7OSEvent+0x37e>
     96f:	48 b8 00 00 00 00 00 	movabs rax,0x0
     976:	00 00 00 
     979:	c6 00 00             	mov    BYTE PTR [rax],0x0
     97c:	48 b8 00 00 00 00 00 	movabs rax,0x0
     983:	00 00 00 
     986:	c6 00 01             	mov    BYTE PTR [rax],0x1
     989:	e9 1a 00 00 00       	jmp    9a8 <_Z11HandleEventRK7OSEvent+0x398>
     98e:	48 b8 00 00 00 00 00 	movabs rax,0x0
     995:	00 00 00 
     998:	c6 00 00             	mov    BYTE PTR [rax],0x0
     99b:	48 b8 00 00 00 00 00 	movabs rax,0x0
     9a2:	00 00 00 
     9a5:	c6 00 01             	mov    BYTE PTR [rax],0x1
     9a8:	e9 ea 08 00 00       	jmp    1297 <_Z11HandleEventRK7OSEvent+0xc87>
     9ad:	c7 45 b8 1a 00 00 00 	mov    DWORD PTR [rbp-0x48],0x1a
     9b4:	c7 45 b4 01 00 00 00 	mov    DWORD PTR [rbp-0x4c],0x1
     9bb:	c7 45 b0 00 00 00 00 	mov    DWORD PTR [rbp-0x50],0x0
     9c2:	8b 45 b0             	mov    eax,DWORD PTR [rbp-0x50]
     9c5:	48 b9 00 00 00 00 00 	movabs rcx,0x0
     9cc:	00 00 00 
     9cf:	8b 09                	mov    ecx,DWORD PTR [rcx]
     9d1:	39 c8                	cmp    eax,ecx
     9d3:	0f 83 f9 02 00 00    	jae    cd2 <_Z11HandleEventRK7OSEvent+0x6c2>
     9d9:	48 63 45 b0          	movsxd rax,DWORD PTR [rbp-0x50]
     9dd:	48 8d 0c c0          	lea    rcx,[rax+rax*8]
     9e1:	48 b8 00 00 00 00 00 	movabs rax,0x0
     9e8:	00 00 00 
     9eb:	48 8d 04 c8          	lea    rax,[rax+rcx*8]
     9ef:	48 89 45 a8          	mov    QWORD PTR [rbp-0x58],rax
     9f3:	48 8b 45 a8          	mov    rax,QWORD PTR [rbp-0x58]
     9f7:	83 78 18 00          	cmp    DWORD PTR [rax+0x18],0x0
     9fb:	0f 85 05 00 00 00    	jne    a06 <_Z11HandleEventRK7OSEvent+0x3f6>
     a01:	e9 be 02 00 00       	jmp    cc4 <_Z11HandleEventRK7OSEvent+0x6b4>
     a06:	c7 45 a4 0e 00 00 00 	mov    DWORD PTR [rbp-0x5c],0xe
     a0d:	c7 45 a0 06 00 00 00 	mov    DWORD PTR [rbp-0x60],0x6
     a14:	48 8b 45 a8          	mov    rax,QWORD PTR [rbp-0x58]
     a18:	8b 40 0c             	mov    eax,DWORD PTR [rax+0xc]
     a1b:	83 e8 1a             	sub    eax,0x1a
     a1e:	83 c0 06             	add    eax,0x6
     a21:	89 45 9c             	mov    DWORD PTR [rbp-0x64],eax
     a24:	48 8b 45 a8          	mov    rax,QWORD PTR [rbp-0x58]
     a28:	8b 40 08             	mov    eax,DWORD PTR [rax+0x8]
     a2b:	48 8b 4d a8          	mov    rcx,QWORD PTR [rbp-0x58]
     a2f:	03 41 10             	add    eax,DWORD PTR [rcx+0x10]
     a32:	83 e8 06             	sub    eax,0x6
     a35:	83 e8 0e             	sub    eax,0xe
     a38:	89 45 98             	mov    DWORD PTR [rbp-0x68],eax
     a3b:	8b 45 98             	mov    eax,DWORD PTR [rbp-0x68]
     a3e:	83 e8 14             	sub    eax,0x14
     a41:	89 45 94             	mov    DWORD PTR [rbp-0x6c],eax
     a44:	8b 45 94             	mov    eax,DWORD PTR [rbp-0x6c]
     a47:	83 e8 14             	sub    eax,0x14
     a4a:	89 45 90             	mov    DWORD PTR [rbp-0x70],eax
     a4d:	8b 7d d4             	mov    edi,DWORD PTR [rbp-0x2c]
     a50:	8b 75 d0             	mov    esi,DWORD PTR [rbp-0x30]
     a53:	8b 55 98             	mov    edx,DWORD PTR [rbp-0x68]
     a56:	8b 4d 9c             	mov    ecx,DWORD PTR [rbp-0x64]
     a59:	48 b8 00 00 00 00 00 	movabs rax,0x0
     a60:	00 00 00 
     a63:	41 b9 0e 00 00 00    	mov    r9d,0xe
     a69:	45 89 c8             	mov    r8d,r9d
     a6c:	ff d0                	call   rax
     a6e:	a8 01                	test   al,0x1
     a70:	0f 85 05 00 00 00    	jne    a7b <_Z11HandleEventRK7OSEvent+0x46b>
     a76:	e9 5a 00 00 00       	jmp    ad5 <_Z11HandleEventRK7OSEvent+0x4c5>
     a7b:	48 8b 45 a8          	mov    rax,QWORD PTR [rbp-0x58]
     a7f:	8b 40 08             	mov    eax,DWORD PTR [rax+0x8]
     a82:	48 c1 e0 20          	shl    rax,0x20
     a86:	48 8b 4d a8          	mov    rcx,QWORD PTR [rbp-0x58]
     a8a:	8b 49 0c             	mov    ecx,DWORD PTR [rcx+0xc]
     a8d:	48 09 c8             	or     rax,rcx
     a90:	48 89 45 88          	mov    QWORD PTR [rbp-0x78],rax
     a94:	48 8b 45 a8          	mov    rax,QWORD PTR [rbp-0x58]
     a98:	8b 40 10             	mov    eax,DWORD PTR [rax+0x10]
     a9b:	48 c1 e0 28          	shl    rax,0x28
     a9f:	48 8b 4d a8          	mov    rcx,QWORD PTR [rbp-0x58]
     aa3:	8b 49 14             	mov    ecx,DWORD PTR [rcx+0x14]
     aa6:	48 c1 e1 10          	shl    rcx,0x10
     aaa:	48 09 c8             	or     rax,rcx
     aad:	48 83 c8 00          	or     rax,0x0
     ab1:	48 89 45 80          	mov    QWORD PTR [rbp-0x80],rax
     ab5:	48 8b 45 a8          	mov    rax,QWORD PTR [rbp-0x58]
     ab9:	48 8b 38             	mov    rdi,QWORD PTR [rax]
     abc:	48 8b 75 88          	mov    rsi,QWORD PTR [rbp-0x78]
     ac0:	48 8b 55 80          	mov    rdx,QWORD PTR [rbp-0x80]
     ac4:	48 b8 00 00 00 00 00 	movabs rax,0x0
     acb:	00 00 00 
     ace:	ff d0                	call   rax
     ad0:	e9 c2 07 00 00       	jmp    1297 <_Z11HandleEventRK7OSEvent+0xc87>
     ad5:	8b 7d d4             	mov    edi,DWORD PTR [rbp-0x2c]
     ad8:	8b 75 d0             	mov    esi,DWORD PTR [rbp-0x30]
     adb:	8b 55 90             	mov    edx,DWORD PTR [rbp-0x70]
     ade:	8b 4d 9c             	mov    ecx,DWORD PTR [rbp-0x64]
     ae1:	48 b8 00 00 00 00 00 	movabs rax,0x0
     ae8:	00 00 00 
     aeb:	41 b9 0e 00 00 00    	mov    r9d,0xe
     af1:	45 89 c8             	mov    r8d,r9d
     af4:	ff d0                	call   rax
     af6:	a8 01                	test   al,0x1
     af8:	0f 85 05 00 00 00    	jne    b03 <_Z11HandleEventRK7OSEvent+0x4f3>
     afe:	e9 66 00 00 00       	jmp    b69 <_Z11HandleEventRK7OSEvent+0x559>
     b03:	48 8b 45 a8          	mov    rax,QWORD PTR [rbp-0x58]
     b07:	8b 40 08             	mov    eax,DWORD PTR [rax+0x8]
     b0a:	48 c1 e0 20          	shl    rax,0x20
     b0e:	48 8b 4d a8          	mov    rcx,QWORD PTR [rbp-0x58]
     b12:	8b 49 0c             	mov    ecx,DWORD PTR [rcx+0xc]
     b15:	48 09 c8             	or     rax,rcx
     b18:	48 89 85 78 ff ff ff 	mov    QWORD PTR [rbp-0x88],rax
     b1f:	48 8b 45 a8          	mov    rax,QWORD PTR [rbp-0x58]
     b23:	8b 40 10             	mov    eax,DWORD PTR [rax+0x10]
     b26:	48 c1 e0 28          	shl    rax,0x28
     b2a:	48 8b 4d a8          	mov    rcx,QWORD PTR [rbp-0x58]
     b2e:	8b 49 14             	mov    ecx,DWORD PTR [rcx+0x14]
     b31:	48 c1 e1 10          	shl    rcx,0x10
     b35:	48 09 c8             	or     rax,rcx
     b38:	48 83 c8 00          	or     rax,0x0
     b3c:	48 89 85 70 ff ff ff 	mov    QWORD PTR [rbp-0x90],rax
     b43:	48 8b 45 a8          	mov    rax,QWORD PTR [rbp-0x58]
     b47:	48 8b 38             	mov    rdi,QWORD PTR [rax]
     b4a:	48 8b b5 78 ff ff ff 	mov    rsi,QWORD PTR [rbp-0x88]
     b51:	48 8b 95 70 ff ff ff 	mov    rdx,QWORD PTR [rbp-0x90]
     b58:	48 b8 00 00 00 00 00 	movabs rax,0x0
     b5f:	00 00 00 
     b62:	ff d0                	call   rax
     b64:	e9 2e 07 00 00       	jmp    1297 <_Z11HandleEventRK7OSEvent+0xc87>
     b69:	8b 45 d4             	mov    eax,DWORD PTR [rbp-0x2c]
     b6c:	48 8b 4d a8          	mov    rcx,QWORD PTR [rbp-0x58]
     b70:	3b 41 08             	cmp    eax,DWORD PTR [rcx+0x8]
     b73:	0f 8c 87 00 00 00    	jl     c00 <_Z11HandleEventRK7OSEvent+0x5f0>
     b79:	8b 45 d4             	mov    eax,DWORD PTR [rbp-0x2c]
     b7c:	48 8b 4d a8          	mov    rcx,QWORD PTR [rbp-0x58]
     b80:	8b 49 08             	mov    ecx,DWORD PTR [rcx+0x8]
     b83:	48 8b 55 a8          	mov    rdx,QWORD PTR [rbp-0x58]
     b87:	03 4a 10             	add    ecx,DWORD PTR [rdx+0x10]
     b8a:	39 c8                	cmp    eax,ecx
     b8c:	0f 8d 6e 00 00 00    	jge    c00 <_Z11HandleEventRK7OSEvent+0x5f0>
     b92:	8b 45 d0             	mov    eax,DWORD PTR [rbp-0x30]
     b95:	48 8b 4d a8          	mov    rcx,QWORD PTR [rbp-0x58]
     b99:	8b 49 0c             	mov    ecx,DWORD PTR [rcx+0xc]
     b9c:	83 e9 1a             	sub    ecx,0x1a
     b9f:	39 c8                	cmp    eax,ecx
     ba1:	0f 8c 59 00 00 00    	jl     c00 <_Z11HandleEventRK7OSEvent+0x5f0>
     ba7:	8b 45 d0             	mov    eax,DWORD PTR [rbp-0x30]
     baa:	48 8b 4d a8          	mov    rcx,QWORD PTR [rbp-0x58]
     bae:	3b 41 0c             	cmp    eax,DWORD PTR [rcx+0xc]
     bb1:	0f 8d 49 00 00 00    	jge    c00 <_Z11HandleEventRK7OSEvent+0x5f0>
     bb7:	48 8b 45 a8          	mov    rax,QWORD PTR [rbp-0x58]
     bbb:	48 8b 08             	mov    rcx,QWORD PTR [rax]
     bbe:	48 b8 00 00 00 00 00 	movabs rax,0x0
     bc5:	00 00 00 
     bc8:	48 89 08             	mov    QWORD PTR [rax],rcx
     bcb:	8b 4d d4             	mov    ecx,DWORD PTR [rbp-0x2c]
     bce:	48 8b 45 a8          	mov    rax,QWORD PTR [rbp-0x58]
     bd2:	8b 40 08             	mov    eax,DWORD PTR [rax+0x8]
     bd5:	29 c1                	sub    ecx,eax
     bd7:	48 b8 00 00 00 00 00 	movabs rax,0x0
     bde:	00 00 00 
     be1:	89 08                	mov    DWORD PTR [rax],ecx
     be3:	8b 4d d0             	mov    ecx,DWORD PTR [rbp-0x30]
     be6:	48 8b 45 a8          	mov    rax,QWORD PTR [rbp-0x58]
     bea:	8b 40 0c             	mov    eax,DWORD PTR [rax+0xc]
     bed:	29 c1                	sub    ecx,eax
     bef:	48 b8 00 00 00 00 00 	movabs rax,0x0
     bf6:	00 00 00 
     bf9:	89 08                	mov    DWORD PTR [rax],ecx
     bfb:	e9 97 06 00 00       	jmp    1297 <_Z11HandleEventRK7OSEvent+0xc87>
     c00:	8b 45 d4             	mov    eax,DWORD PTR [rbp-0x2c]
     c03:	48 8b 4d a8          	mov    rcx,QWORD PTR [rbp-0x58]
     c07:	3b 41 08             	cmp    eax,DWORD PTR [rcx+0x8]
     c0a:	0f 8c af 00 00 00    	jl     cbf <_Z11HandleEventRK7OSEvent+0x6af>
     c10:	8b 45 d4             	mov    eax,DWORD PTR [rbp-0x2c]
     c13:	48 8b 4d a8          	mov    rcx,QWORD PTR [rbp-0x58]
     c17:	8b 49 08             	mov    ecx,DWORD PTR [rcx+0x8]
     c1a:	48 8b 55 a8          	mov    rdx,QWORD PTR [rbp-0x58]
     c1e:	03 4a 10             	add    ecx,DWORD PTR [rdx+0x10]
     c21:	39 c8                	cmp    eax,ecx
     c23:	0f 8d 96 00 00 00    	jge    cbf <_Z11HandleEventRK7OSEvent+0x6af>
     c29:	8b 45 d0             	mov    eax,DWORD PTR [rbp-0x30]
     c2c:	48 8b 4d a8          	mov    rcx,QWORD PTR [rbp-0x58]
     c30:	3b 41 0c             	cmp    eax,DWORD PTR [rcx+0xc]
     c33:	0f 8c 86 00 00 00    	jl     cbf <_Z11HandleEventRK7OSEvent+0x6af>
     c39:	8b 45 d0             	mov    eax,DWORD PTR [rbp-0x30]
     c3c:	48 8b 4d a8          	mov    rcx,QWORD PTR [rbp-0x58]
     c40:	8b 49 0c             	mov    ecx,DWORD PTR [rcx+0xc]
     c43:	48 8b 55 a8          	mov    rdx,QWORD PTR [rbp-0x58]
     c47:	03 4a 14             	add    ecx,DWORD PTR [rdx+0x14]
     c4a:	39 c8                	cmp    eax,ecx
     c4c:	0f 8d 6d 00 00 00    	jge    cbf <_Z11HandleEventRK7OSEvent+0x6af>
     c52:	c7 85 58 ff ff ff 02 	mov    DWORD PTR [rbp-0xa8],0x2
     c59:	00 00 00 
     c5c:	8b 45 d4             	mov    eax,DWORD PTR [rbp-0x2c]
     c5f:	48 8b 4d a8          	mov    rcx,QWORD PTR [rbp-0x58]
     c63:	8b 49 08             	mov    ecx,DWORD PTR [rcx+0x8]
     c66:	29 c8                	sub    eax,ecx
     c68:	89 85 5c ff ff ff    	mov    DWORD PTR [rbp-0xa4],eax
     c6e:	8b 45 d0             	mov    eax,DWORD PTR [rbp-0x30]
     c71:	48 8b 4d a8          	mov    rcx,QWORD PTR [rbp-0x58]
     c75:	8b 49 0c             	mov    ecx,DWORD PTR [rcx+0xc]
     c78:	29 c8                	sub    eax,ecx
     c7a:	89 85 60 ff ff ff    	mov    DWORD PTR [rbp-0xa0],eax
     c80:	c7 85 64 ff ff ff 01 	mov    DWORD PTR [rbp-0x9c],0x1
     c87:	00 00 00 
     c8a:	48 8b 45 a8          	mov    rax,QWORD PTR [rbp-0x58]
     c8e:	48 8b 78 40          	mov    rdi,QWORD PTR [rax+0x40]
     c92:	48 b8 00 00 00 00 00 	movabs rax,0x0
     c99:	00 00 00 
     c9c:	48 8d b5 58 ff ff ff 	lea    rsi,[rbp-0xa8]
     ca3:	ff d0                	call   rax
     ca5:	48 8b 45 a8          	mov    rax,QWORD PTR [rbp-0x58]
     ca9:	48 8b 48 40          	mov    rcx,QWORD PTR [rax+0x40]
     cad:	48 b8 00 00 00 00 00 	movabs rax,0x0
     cb4:	00 00 00 
     cb7:	48 89 08             	mov    QWORD PTR [rax],rcx
     cba:	e9 d8 05 00 00       	jmp    1297 <_Z11HandleEventRK7OSEvent+0xc87>
     cbf:	e9 00 00 00 00       	jmp    cc4 <_Z11HandleEventRK7OSEvent+0x6b4>
     cc4:	8b 45 b0             	mov    eax,DWORD PTR [rbp-0x50]
     cc7:	83 c0 01             	add    eax,0x1
     cca:	89 45 b0             	mov    DWORD PTR [rbp-0x50],eax
     ccd:	e9 f0 fc ff ff       	jmp    9c2 <_Z11HandleEventRK7OSEvent+0x3b2>
     cd2:	c7 85 54 ff ff ff 0e 	mov    DWORD PTR [rbp-0xac],0xe
     cd9:	00 00 00 
     cdc:	c7 85 50 ff ff ff 06 	mov    DWORD PTR [rbp-0xb0],0x6
     ce3:	00 00 00 
     ce6:	48 b8 00 00 00 00 00 	movabs rax,0x0
     ced:	00 00 00 
     cf0:	8b 00                	mov    eax,DWORD PTR [rax]
     cf2:	83 e8 01             	sub    eax,0x1
     cf5:	89 85 4c ff ff ff    	mov    DWORD PTR [rbp-0xb4],eax
     cfb:	83 bd 4c ff ff ff 00 	cmp    DWORD PTR [rbp-0xb4],0x0
     d02:	0f 8c c5 03 00 00    	jl     10cd <_Z11HandleEventRK7OSEvent+0xabd>
     d08:	48 63 85 4c ff ff ff 	movsxd rax,DWORD PTR [rbp-0xb4]
     d0f:	48 6b c0 38          	imul   rax,rax,0x38
     d13:	48 b9 00 00 00 00 00 	movabs rcx,0x0
     d1a:	00 00 00 
     d1d:	48 01 c8             	add    rax,rcx
     d20:	48 89 85 40 ff ff ff 	mov    QWORD PTR [rbp-0xc0],rax
     d27:	48 8b 85 40 ff ff ff 	mov    rax,QWORD PTR [rbp-0xc0]
     d2e:	f6 40 21 01          	test   BYTE PTR [rax+0x21],0x1
     d32:	0f 84 05 00 00 00    	je     d3d <_Z11HandleEventRK7OSEvent+0x72d>
     d38:	e9 7c 03 00 00       	jmp    10b9 <_Z11HandleEventRK7OSEvent+0xaa9>
     d3d:	48 8b 85 40 ff ff ff 	mov    rax,QWORD PTR [rbp-0xc0]
     d44:	8b 40 04             	mov    eax,DWORD PTR [rax+0x4]
     d47:	83 c0 06             	add    eax,0x6
     d4a:	89 85 3c ff ff ff    	mov    DWORD PTR [rbp-0xc4],eax
     d50:	48 8b 85 40 ff ff ff 	mov    rax,QWORD PTR [rbp-0xc0]
     d57:	8b 00                	mov    eax,DWORD PTR [rax]
     d59:	48 8b 8d 40 ff ff ff 	mov    rcx,QWORD PTR [rbp-0xc0]
     d60:	03 41 08             	add    eax,DWORD PTR [rcx+0x8]
     d63:	83 e8 06             	sub    eax,0x6
     d66:	83 e8 0e             	sub    eax,0xe
     d69:	89 85 38 ff ff ff    	mov    DWORD PTR [rbp-0xc8],eax
     d6f:	8b 85 38 ff ff ff    	mov    eax,DWORD PTR [rbp-0xc8]
     d75:	83 e8 14             	sub    eax,0x14
     d78:	89 85 34 ff ff ff    	mov    DWORD PTR [rbp-0xcc],eax
     d7e:	8b 85 34 ff ff ff    	mov    eax,DWORD PTR [rbp-0xcc]
     d84:	83 e8 14             	sub    eax,0x14
     d87:	89 85 30 ff ff ff    	mov    DWORD PTR [rbp-0xd0],eax
     d8d:	8b 7d d4             	mov    edi,DWORD PTR [rbp-0x2c]
     d90:	8b 75 d0             	mov    esi,DWORD PTR [rbp-0x30]
     d93:	8b 95 38 ff ff ff    	mov    edx,DWORD PTR [rbp-0xc8]
     d99:	8b 8d 3c ff ff ff    	mov    ecx,DWORD PTR [rbp-0xc4]
     d9f:	48 b8 00 00 00 00 00 	movabs rax,0x0
     da6:	00 00 00 
     da9:	41 b9 0e 00 00 00    	mov    r9d,0xe
     daf:	45 89 c8             	mov    r8d,r9d
     db2:	ff d0                	call   rax
     db4:	a8 01                	test   al,0x1
     db6:	0f 85 05 00 00 00    	jne    dc1 <_Z11HandleEventRK7OSEvent+0x7b1>
     dbc:	e9 2d 00 00 00       	jmp    dee <_Z11HandleEventRK7OSEvent+0x7de>
     dc1:	48 8b 85 40 ff ff ff 	mov    rax,QWORD PTR [rbp-0xc0]
     dc8:	c6 40 21 01          	mov    BYTE PTR [rax+0x21],0x1
     dcc:	48 b8 00 00 00 00 00 	movabs rax,0x0
     dd3:	00 00 00 
     dd6:	c6 00 01             	mov    BYTE PTR [rax],0x1
     dd9:	48 b8 00 00 00 00 00 	movabs rax,0x0
     de0:	00 00 00 
     de3:	c7 00 ff ff ff ff    	mov    DWORD PTR [rax],0xffffffff
     de9:	e9 a9 04 00 00       	jmp    1297 <_Z11HandleEventRK7OSEvent+0xc87>
     dee:	8b 7d d4             	mov    edi,DWORD PTR [rbp-0x2c]
     df1:	8b 75 d0             	mov    esi,DWORD PTR [rbp-0x30]
     df4:	8b 95 34 ff ff ff    	mov    edx,DWORD PTR [rbp-0xcc]
     dfa:	8b 8d 3c ff ff ff    	mov    ecx,DWORD PTR [rbp-0xc4]
     e00:	48 b8 00 00 00 00 00 	movabs rax,0x0
     e07:	00 00 00 
     e0a:	41 b9 0e 00 00 00    	mov    r9d,0xe
     e10:	45 89 c8             	mov    r8d,r9d
     e13:	ff d0                	call   rax
     e15:	a8 01                	test   al,0x1
     e17:	0f 85 05 00 00 00    	jne    e22 <_Z11HandleEventRK7OSEvent+0x812>
     e1d:	e9 5a 01 00 00       	jmp    f7c <_Z11HandleEventRK7OSEvent+0x96c>
     e22:	c7 85 2c ff ff ff 28 	mov    DWORD PTR [rbp-0xd4],0x28
     e29:	00 00 00 
     e2c:	48 b8 00 00 00 00 00 	movabs rax,0x0
     e33:	00 00 00 
     e36:	ff d0                	call   rax
     e38:	89 85 28 ff ff ff    	mov    DWORD PTR [rbp-0xd8],eax
     e3e:	48 b8 00 00 00 00 00 	movabs rax,0x0
     e45:	00 00 00 
     e48:	ff d0                	call   rax
     e4a:	83 e8 28             	sub    eax,0x28
     e4d:	89 85 24 ff ff ff    	mov    DWORD PTR [rbp-0xdc],eax
     e53:	48 8b 85 40 ff ff ff 	mov    rax,QWORD PTR [rbp-0xc0]
     e5a:	f6 40 22 01          	test   BYTE PTR [rax+0x22],0x1
     e5e:	0f 85 9a 00 00 00    	jne    efe <_Z11HandleEventRK7OSEvent+0x8ee>
     e64:	48 8b 85 40 ff ff ff 	mov    rax,QWORD PTR [rbp-0xc0]
     e6b:	8b 08                	mov    ecx,DWORD PTR [rax]
     e6d:	48 8b 85 40 ff ff ff 	mov    rax,QWORD PTR [rbp-0xc0]
     e74:	89 48 24             	mov    DWORD PTR [rax+0x24],ecx
     e77:	48 8b 85 40 ff ff ff 	mov    rax,QWORD PTR [rbp-0xc0]
     e7e:	8b 48 04             	mov    ecx,DWORD PTR [rax+0x4]
     e81:	48 8b 85 40 ff ff ff 	mov    rax,QWORD PTR [rbp-0xc0]
     e88:	89 48 28             	mov    DWORD PTR [rax+0x28],ecx
     e8b:	48 8b 85 40 ff ff ff 	mov    rax,QWORD PTR [rbp-0xc0]
     e92:	8b 48 08             	mov    ecx,DWORD PTR [rax+0x8]
     e95:	48 8b 85 40 ff ff ff 	mov    rax,QWORD PTR [rbp-0xc0]
     e9c:	89 48 2c             	mov    DWORD PTR [rax+0x2c],ecx
     e9f:	48 8b 85 40 ff ff ff 	mov    rax,QWORD PTR [rbp-0xc0]
     ea6:	8b 48 0c             	mov    ecx,DWORD PTR [rax+0xc]
     ea9:	48 8b 85 40 ff ff ff 	mov    rax,QWORD PTR [rbp-0xc0]
     eb0:	89 48 30             	mov    DWORD PTR [rax+0x30],ecx
     eb3:	48 8b 85 40 ff ff ff 	mov    rax,QWORD PTR [rbp-0xc0]
     eba:	c7 00 00 00 00 00    	mov    DWORD PTR [rax],0x0
     ec0:	48 8b 85 40 ff ff ff 	mov    rax,QWORD PTR [rbp-0xc0]
     ec7:	c7 40 04 00 00 00 00 	mov    DWORD PTR [rax+0x4],0x0
     ece:	8b 8d 28 ff ff ff    	mov    ecx,DWORD PTR [rbp-0xd8]
     ed4:	48 8b 85 40 ff ff ff 	mov    rax,QWORD PTR [rbp-0xc0]
     edb:	89 48 08             	mov    DWORD PTR [rax+0x8],ecx
     ede:	8b 8d 24 ff ff ff    	mov    ecx,DWORD PTR [rbp-0xdc]
     ee4:	48 8b 85 40 ff ff ff 	mov    rax,QWORD PTR [rbp-0xc0]
     eeb:	89 48 0c             	mov    DWORD PTR [rax+0xc],ecx
     eee:	48 8b 85 40 ff ff ff 	mov    rax,QWORD PTR [rbp-0xc0]
     ef5:	c6 40 22 01          	mov    BYTE PTR [rax+0x22],0x1
     ef9:	e9 5a 00 00 00       	jmp    f58 <_Z11HandleEventRK7OSEvent+0x948>
     efe:	48 8b 85 40 ff ff ff 	mov    rax,QWORD PTR [rbp-0xc0]
     f05:	8b 48 24             	mov    ecx,DWORD PTR [rax+0x24]
     f08:	48 8b 85 40 ff ff ff 	mov    rax,QWORD PTR [rbp-0xc0]
     f0f:	89 08                	mov    DWORD PTR [rax],ecx
     f11:	48 8b 85 40 ff ff ff 	mov    rax,QWORD PTR [rbp-0xc0]
     f18:	8b 48 28             	mov    ecx,DWORD PTR [rax+0x28]
     f1b:	48 8b 85 40 ff ff ff 	mov    rax,QWORD PTR [rbp-0xc0]
     f22:	89 48 04             	mov    DWORD PTR [rax+0x4],ecx
     f25:	48 8b 85 40 ff ff ff 	mov    rax,QWORD PTR [rbp-0xc0]
     f2c:	8b 48 2c             	mov    ecx,DWORD PTR [rax+0x2c]
     f2f:	48 8b 85 40 ff ff ff 	mov    rax,QWORD PTR [rbp-0xc0]
     f36:	89 48 08             	mov    DWORD PTR [rax+0x8],ecx
     f39:	48 8b 85 40 ff ff ff 	mov    rax,QWORD PTR [rbp-0xc0]
     f40:	8b 48 30             	mov    ecx,DWORD PTR [rax+0x30]
     f43:	48 8b 85 40 ff ff ff 	mov    rax,QWORD PTR [rbp-0xc0]
     f4a:	89 48 0c             	mov    DWORD PTR [rax+0xc],ecx
     f4d:	48 8b 85 40 ff ff ff 	mov    rax,QWORD PTR [rbp-0xc0]
     f54:	c6 40 22 00          	mov    BYTE PTR [rax+0x22],0x0
     f58:	48 b8 00 00 00 00 00 	movabs rax,0x0
     f5f:	00 00 00 
     f62:	c6 00 01             	mov    BYTE PTR [rax],0x1
     f65:	8b bd 4c ff ff ff    	mov    edi,DWORD PTR [rbp-0xb4]
     f6b:	48 b8 00 00 00 00 00 	movabs rax,0x0
     f72:	00 00 00 
     f75:	ff d0                	call   rax
     f77:	e9 1b 03 00 00       	jmp    1297 <_Z11HandleEventRK7OSEvent+0xc87>
     f7c:	8b 7d d4             	mov    edi,DWORD PTR [rbp-0x2c]
     f7f:	8b 75 d0             	mov    esi,DWORD PTR [rbp-0x30]
     f82:	8b 95 30 ff ff ff    	mov    edx,DWORD PTR [rbp-0xd0]
     f88:	8b 8d 3c ff ff ff    	mov    ecx,DWORD PTR [rbp-0xc4]
     f8e:	48 b8 00 00 00 00 00 	movabs rax,0x0
     f95:	00 00 00 
     f98:	41 b9 0e 00 00 00    	mov    r9d,0xe
     f9e:	45 89 c8             	mov    r8d,r9d
     fa1:	ff d0                	call   rax
     fa3:	a8 01                	test   al,0x1
     fa5:	0f 85 05 00 00 00    	jne    fb0 <_Z11HandleEventRK7OSEvent+0x9a0>
     fab:	e9 2d 00 00 00       	jmp    fdd <_Z11HandleEventRK7OSEvent+0x9cd>
     fb0:	48 8b 85 40 ff ff ff 	mov    rax,QWORD PTR [rbp-0xc0]
     fb7:	c6 40 21 01          	mov    BYTE PTR [rax+0x21],0x1
     fbb:	48 b8 00 00 00 00 00 	movabs rax,0x0
     fc2:	00 00 00 
     fc5:	c6 00 01             	mov    BYTE PTR [rax],0x1
     fc8:	48 b8 00 00 00 00 00 	movabs rax,0x0
     fcf:	00 00 00 
     fd2:	c7 00 ff ff ff ff    	mov    DWORD PTR [rax],0xffffffff
     fd8:	e9 ba 02 00 00       	jmp    1297 <_Z11HandleEventRK7OSEvent+0xc87>
     fdd:	8b 45 d4             	mov    eax,DWORD PTR [rbp-0x2c]
     fe0:	48 8b 8d 40 ff ff ff 	mov    rcx,QWORD PTR [rbp-0xc0]
     fe7:	3b 01                	cmp    eax,DWORD PTR [rcx]
     fe9:	0f 8c c5 00 00 00    	jl     10b4 <_Z11HandleEventRK7OSEvent+0xaa4>
     fef:	8b 45 d4             	mov    eax,DWORD PTR [rbp-0x2c]
     ff2:	48 8b 8d 40 ff ff ff 	mov    rcx,QWORD PTR [rbp-0xc0]
     ff9:	8b 09                	mov    ecx,DWORD PTR [rcx]
     ffb:	48 8b 95 40 ff ff ff 	mov    rdx,QWORD PTR [rbp-0xc0]
    1002:	03 4a 08             	add    ecx,DWORD PTR [rdx+0x8]
    1005:	39 c8                	cmp    eax,ecx
    1007:	0f 8d a7 00 00 00    	jge    10b4 <_Z11HandleEventRK7OSEvent+0xaa4>
    100d:	8b 45 d0             	mov    eax,DWORD PTR [rbp-0x30]
    1010:	48 8b 8d 40 ff ff ff 	mov    rcx,QWORD PTR [rbp-0xc0]
    1017:	3b 41 04             	cmp    eax,DWORD PTR [rcx+0x4]
    101a:	0f 8c 94 00 00 00    	jl     10b4 <_Z11HandleEventRK7OSEvent+0xaa4>
    1020:	8b 45 d0             	mov    eax,DWORD PTR [rbp-0x30]
    1023:	48 8b 8d 40 ff ff ff 	mov    rcx,QWORD PTR [rbp-0xc0]
    102a:	8b 49 04             	mov    ecx,DWORD PTR [rcx+0x4]
    102d:	83 c1 19             	add    ecx,0x19
    1030:	39 c8                	cmp    eax,ecx
    1032:	0f 8d 7c 00 00 00    	jge    10b4 <_Z11HandleEventRK7OSEvent+0xaa4>
    1038:	8b 8d 4c ff ff ff    	mov    ecx,DWORD PTR [rbp-0xb4]
    103e:	48 b8 00 00 00 00 00 	movabs rax,0x0
    1045:	00 00 00 
    1048:	48 89 85 00 ff ff ff 	mov    QWORD PTR [rbp-0x100],rax
    104f:	89 08                	mov    DWORD PTR [rax],ecx
    1051:	8b 4d d4             	mov    ecx,DWORD PTR [rbp-0x2c]
    1054:	48 8b 85 40 ff ff ff 	mov    rax,QWORD PTR [rbp-0xc0]
    105b:	8b 00                	mov    eax,DWORD PTR [rax]
    105d:	29 c1                	sub    ecx,eax
    105f:	48 b8 00 00 00 00 00 	movabs rax,0x0
    1066:	00 00 00 
    1069:	89 08                	mov    DWORD PTR [rax],ecx
    106b:	8b 4d d0             	mov    ecx,DWORD PTR [rbp-0x30]
    106e:	48 8b 85 40 ff ff ff 	mov    rax,QWORD PTR [rbp-0xc0]
    1075:	8b 40 04             	mov    eax,DWORD PTR [rax+0x4]
    1078:	29 c1                	sub    ecx,eax
    107a:	48 b8 00 00 00 00 00 	movabs rax,0x0
    1081:	00 00 00 
    1084:	89 08                	mov    DWORD PTR [rax],ecx
    1086:	8b bd 4c ff ff ff    	mov    edi,DWORD PTR [rbp-0xb4]
    108c:	48 b8 00 00 00 00 00 	movabs rax,0x0
    1093:	00 00 00 
    1096:	ff d0                	call   rax
    1098:	48 8b 85 00 ff ff ff 	mov    rax,QWORD PTR [rbp-0x100]
    109f:	48 b9 00 00 00 00 00 	movabs rcx,0x0
    10a6:	00 00 00 
    10a9:	8b 09                	mov    ecx,DWORD PTR [rcx]
    10ab:	ff c9                	dec    ecx
    10ad:	89 08                	mov    DWORD PTR [rax],ecx
    10af:	e9 19 00 00 00       	jmp    10cd <_Z11HandleEventRK7OSEvent+0xabd>
    10b4:	e9 00 00 00 00       	jmp    10b9 <_Z11HandleEventRK7OSEvent+0xaa9>
    10b9:	8b 85 4c ff ff ff    	mov    eax,DWORD PTR [rbp-0xb4]
    10bf:	83 c0 ff             	add    eax,0xffffffff
    10c2:	89 85 4c ff ff ff    	mov    DWORD PTR [rbp-0xb4],eax
    10c8:	e9 2e fc ff ff       	jmp    cfb <_Z11HandleEventRK7OSEvent+0x6eb>
    10cd:	e9 00 00 00 00       	jmp    10d2 <_Z11HandleEventRK7OSEvent+0xac2>
    10d2:	e9 c0 01 00 00       	jmp    1297 <_Z11HandleEventRK7OSEvent+0xc87>
    10d7:	48 8b 45 f8          	mov    rax,QWORD PTR [rbp-0x8]
    10db:	83 38 01             	cmp    DWORD PTR [rax],0x1
    10de:	0f 85 b3 01 00 00    	jne    1297 <_Z11HandleEventRK7OSEvent+0xc87>
    10e4:	48 8b 45 f8          	mov    rax,QWORD PTR [rbp-0x8]
    10e8:	8b 40 0c             	mov    eax,DWORD PTR [rax+0xc]
    10eb:	83 e0 01             	and    eax,0x1
    10ee:	83 f8 00             	cmp    eax,0x0
    10f1:	0f 84 0d 00 00 00    	je     1104 <_Z11HandleEventRK7OSEvent+0xaf4>
    10f7:	48 b8 00 00 00 00 00 	movabs rax,0x0
    10fe:	00 00 00 
    1101:	c6 00 01             	mov    BYTE PTR [rax],0x1
    1104:	48 8b 45 f8          	mov    rax,QWORD PTR [rbp-0x8]
    1108:	8b 48 04             	mov    ecx,DWORD PTR [rax+0x4]
    110b:	89 c8                	mov    eax,ecx
    110d:	8d 14 40             	lea    edx,[rax+rax*2]
    1110:	c1 e2 10             	shl    edx,0x10
    1113:	48 b8 00 00 00 00 00 	movabs rax,0x0
    111a:	00 00 00 
    111d:	8b 08                	mov    ecx,DWORD PTR [rax]
    111f:	01 d1                	add    ecx,edx
    1121:	89 08                	mov    DWORD PTR [rax],ecx
    1123:	48 8b 45 f8          	mov    rax,QWORD PTR [rbp-0x8]
    1127:	8b 48 08             	mov    ecx,DWORD PTR [rax+0x8]
    112a:	89 c8                	mov    eax,ecx
    112c:	8d 14 40             	lea    edx,[rax+rax*2]
    112f:	c1 e2 10             	shl    edx,0x10
    1132:	48 b8 00 00 00 00 00 	movabs rax,0x0
    1139:	00 00 00 
    113c:	8b 08                	mov    ecx,DWORD PTR [rax]
    113e:	01 d1                	add    ecx,edx
    1140:	89 08                	mov    DWORD PTR [rax],ecx
    1142:	48 b8 00 00 00 00 00 	movabs rax,0x0
    1149:	00 00 00 
    114c:	ff d0                	call   rax
    114e:	89 85 20 ff ff ff    	mov    DWORD PTR [rbp-0xe0],eax
    1154:	48 b8 00 00 00 00 00 	movabs rax,0x0
    115b:	00 00 00 
    115e:	ff d0                	call   rax
    1160:	89 85 1c ff ff ff    	mov    DWORD PTR [rbp-0xe4],eax
    1166:	c7 85 18 ff ff ff 00 	mov    DWORD PTR [rbp-0xe8],0x0
    116d:	00 00 00 
    1170:	c7 85 14 ff ff ff 00 	mov    DWORD PTR [rbp-0xec],0x0
    1177:	00 00 00 
    117a:	83 bd 20 ff ff ff 00 	cmp    DWORD PTR [rbp-0xe0],0x0
    1181:	0f 8e 17 00 00 00    	jle    119e <_Z11HandleEventRK7OSEvent+0xb8e>
    1187:	8b 85 20 ff ff ff    	mov    eax,DWORD PTR [rbp-0xe0]
    118d:	83 e8 01             	sub    eax,0x1
    1190:	c1 e0 10             	shl    eax,0x10
    1193:	89 85 fc fe ff ff    	mov    DWORD PTR [rbp-0x104],eax
    1199:	e9 0d 00 00 00       	jmp    11ab <_Z11HandleEventRK7OSEvent+0xb9b>
    119e:	31 c0                	xor    eax,eax
    11a0:	89 85 fc fe ff ff    	mov    DWORD PTR [rbp-0x104],eax
    11a6:	e9 00 00 00 00       	jmp    11ab <_Z11HandleEventRK7OSEvent+0xb9b>
    11ab:	8b 85 fc fe ff ff    	mov    eax,DWORD PTR [rbp-0x104]
    11b1:	89 85 10 ff ff ff    	mov    DWORD PTR [rbp-0xf0],eax
    11b7:	83 bd 1c ff ff ff 00 	cmp    DWORD PTR [rbp-0xe4],0x0
    11be:	0f 8e 17 00 00 00    	jle    11db <_Z11HandleEventRK7OSEvent+0xbcb>
    11c4:	8b 85 1c ff ff ff    	mov    eax,DWORD PTR [rbp-0xe4]
    11ca:	83 e8 01             	sub    eax,0x1
    11cd:	c1 e0 10             	shl    eax,0x10
    11d0:	89 85 f8 fe ff ff    	mov    DWORD PTR [rbp-0x108],eax
    11d6:	e9 0d 00 00 00       	jmp    11e8 <_Z11HandleEventRK7OSEvent+0xbd8>
    11db:	31 c0                	xor    eax,eax
    11dd:	89 85 f8 fe ff ff    	mov    DWORD PTR [rbp-0x108],eax
    11e3:	e9 00 00 00 00       	jmp    11e8 <_Z11HandleEventRK7OSEvent+0xbd8>
    11e8:	8b 85 f8 fe ff ff    	mov    eax,DWORD PTR [rbp-0x108]
    11ee:	89 85 0c ff ff ff    	mov    DWORD PTR [rbp-0xf4],eax
    11f4:	48 b8 00 00 00 00 00 	movabs rax,0x0
    11fb:	00 00 00 
    11fe:	8b 00                	mov    eax,DWORD PTR [rax]
    1200:	83 f8 00             	cmp    eax,0x0
    1203:	0f 8d 10 00 00 00    	jge    1219 <_Z11HandleEventRK7OSEvent+0xc09>
    1209:	48 b8 00 00 00 00 00 	movabs rax,0x0
    1210:	00 00 00 
    1213:	c7 00 00 00 00 00    	mov    DWORD PTR [rax],0x0
    1219:	48 b8 00 00 00 00 00 	movabs rax,0x0
    1220:	00 00 00 
    1223:	8b 00                	mov    eax,DWORD PTR [rax]
    1225:	83 f8 00             	cmp    eax,0x0
    1228:	0f 8d 10 00 00 00    	jge    123e <_Z11HandleEventRK7OSEvent+0xc2e>
    122e:	48 b8 00 00 00 00 00 	movabs rax,0x0
    1235:	00 00 00 
    1238:	c7 00 00 00 00 00    	mov    DWORD PTR [rax],0x0
    123e:	48 b8 00 00 00 00 00 	movabs rax,0x0
    1245:	00 00 00 
    1248:	8b 00                	mov    eax,DWORD PTR [rax]
    124a:	3b 85 10 ff ff ff    	cmp    eax,DWORD PTR [rbp-0xf0]
    1250:	0f 8e 12 00 00 00    	jle    1268 <_Z11HandleEventRK7OSEvent+0xc58>
    1256:	8b 8d 10 ff ff ff    	mov    ecx,DWORD PTR [rbp-0xf0]
    125c:	48 b8 00 00 00 00 00 	movabs rax,0x0
    1263:	00 00 00 
    1266:	89 08                	mov    DWORD PTR [rax],ecx
    1268:	48 b8 00 00 00 00 00 	movabs rax,0x0
    126f:	00 00 00 
    1272:	8b 00                	mov    eax,DWORD PTR [rax]
    1274:	3b 85 0c ff ff ff    	cmp    eax,DWORD PTR [rbp-0xf4]
    127a:	0f 8e 12 00 00 00    	jle    1292 <_Z11HandleEventRK7OSEvent+0xc82>
    1280:	8b 8d 0c ff ff ff    	mov    ecx,DWORD PTR [rbp-0xf4]
    1286:	48 b8 00 00 00 00 00 	movabs rax,0x0
    128d:	00 00 00 
    1290:	89 08                	mov    DWORD PTR [rax],ecx
    1292:	e9 00 00 00 00       	jmp    1297 <_Z11HandleEventRK7OSEvent+0xc87>
    1297:	48 81 c4 10 01 00 00 	add    rsp,0x110
    129e:	5d                   	pop    rbp
    129f:	c3                   	ret

00000000000012a0 <_ZL7HitRectiiiiii>:
    12a0:	55                   	push   rbp
    12a1:	48 89 e5             	mov    rbp,rsp
    12a4:	48 83 ec 1c          	sub    rsp,0x1c
    12a8:	89 7d fc             	mov    DWORD PTR [rbp-0x4],edi
    12ab:	89 75 f8             	mov    DWORD PTR [rbp-0x8],esi
    12ae:	89 55 f4             	mov    DWORD PTR [rbp-0xc],edx
    12b1:	89 4d f0             	mov    DWORD PTR [rbp-0x10],ecx
    12b4:	44 89 45 ec          	mov    DWORD PTR [rbp-0x14],r8d
    12b8:	44 89 4d e8          	mov    DWORD PTR [rbp-0x18],r9d
    12bc:	8b 4d fc             	mov    ecx,DWORD PTR [rbp-0x4]
    12bf:	31 c0                	xor    eax,eax
    12c1:	3b 4d f4             	cmp    ecx,DWORD PTR [rbp-0xc]
    12c4:	88 45 e7             	mov    BYTE PTR [rbp-0x19],al
    12c7:	0f 8c 38 00 00 00    	jl     1305 <_ZL7HitRectiiiiii+0x65>
    12cd:	8b 4d fc             	mov    ecx,DWORD PTR [rbp-0x4]
    12d0:	8b 55 f4             	mov    edx,DWORD PTR [rbp-0xc]
    12d3:	03 55 ec             	add    edx,DWORD PTR [rbp-0x14]
    12d6:	31 c0                	xor    eax,eax
    12d8:	39 d1                	cmp    ecx,edx
    12da:	88 45 e7             	mov    BYTE PTR [rbp-0x19],al
    12dd:	0f 8d 22 00 00 00    	jge    1305 <_ZL7HitRectiiiiii+0x65>
    12e3:	8b 4d f8             	mov    ecx,DWORD PTR [rbp-0x8]
    12e6:	31 c0                	xor    eax,eax
    12e8:	3b 4d f0             	cmp    ecx,DWORD PTR [rbp-0x10]
    12eb:	88 45 e7             	mov    BYTE PTR [rbp-0x19],al
    12ee:	0f 8c 11 00 00 00    	jl     1305 <_ZL7HitRectiiiiii+0x65>
    12f4:	8b 45 f8             	mov    eax,DWORD PTR [rbp-0x8]
    12f7:	8b 4d f0             	mov    ecx,DWORD PTR [rbp-0x10]
    12fa:	03 4d e8             	add    ecx,DWORD PTR [rbp-0x18]
    12fd:	39 c8                	cmp    eax,ecx
    12ff:	0f 9c c0             	setl   al
    1302:	88 45 e7             	mov    BYTE PTR [rbp-0x19],al
    1305:	8a 45 e7             	mov    al,BYTE PTR [rbp-0x19]
    1308:	24 01                	and    al,0x1
    130a:	0f b6 c0             	movzx  eax,al
    130d:	48 83 c4 1c          	add    rsp,0x1c
    1311:	5d                   	pop    rbp
    1312:	c3                   	ret
    1313:	66 66 66 66 2e 0f 1f 	data16 data16 data16 cs nop WORD PTR [rax+rax*1+0x0]
    131a:	84 00 00 00 00 00 

0000000000001320 <_Z9PollInputv>:
    1320:	55                   	push   rbp
    1321:	48 89 e5             	mov    rbp,rsp
    1324:	48 83 ec 20          	sub    rsp,0x20
    1328:	c7 45 e4 00 00 00 00 	mov    DWORD PTR [rbp-0x1c],0x0
    132f:	48 b8 00 00 00 00 00 	movabs rax,0x0
    1336:	00 00 00 
    1339:	48 8d 7d e8          	lea    rdi,[rbp-0x18]
    133d:	ff d0                	call   rax
    133f:	89 c1                	mov    ecx,eax
    1341:	31 c0                	xor    eax,eax
    1343:	83 f9 00             	cmp    ecx,0x0
    1346:	88 45 e3             	mov    BYTE PTR [rbp-0x1d],al
    1349:	0f 84 0d 00 00 00    	je     135c <_Z9PollInputv+0x3c>
    134f:	81 7d e4 00 02 00 00 	cmp    DWORD PTR [rbp-0x1c],0x200
    1356:	0f 9c c0             	setl   al
    1359:	88 45 e3             	mov    BYTE PTR [rbp-0x1d],al
    135c:	8a 45 e3             	mov    al,BYTE PTR [rbp-0x1d]
    135f:	a8 01                	test   al,0x1
    1361:	0f 85 05 00 00 00    	jne    136c <_Z9PollInputv+0x4c>
    1367:	e9 1e 00 00 00       	jmp    138a <_Z9PollInputv+0x6a>
    136c:	48 b8 00 00 00 00 00 	movabs rax,0x0
    1373:	00 00 00 
    1376:	48 8d 7d e8          	lea    rdi,[rbp-0x18]
    137a:	ff d0                	call   rax
    137c:	8b 45 e4             	mov    eax,DWORD PTR [rbp-0x1c]
    137f:	83 c0 01             	add    eax,0x1
    1382:	89 45 e4             	mov    DWORD PTR [rbp-0x1c],eax
    1385:	e9 a5 ff ff ff       	jmp    132f <_Z9PollInputv+0xf>
    138a:	48 b8 00 00 00 00 00 	movabs rax,0x0
    1391:	00 00 00 
    1394:	ff d0                	call   rax
    1396:	48 83 c4 20          	add    rsp,0x20
    139a:	5d                   	pop    rbp
    139b:	c3                   	ret
    139c:	0f 1f 40 00          	nop    DWORD PTR [rax+0x0]

00000000000013a0 <_ZL19UpdateMousePerFramev>:
    13a0:	55                   	push   rbp
    13a1:	48 89 e5             	mov    rbp,rsp
    13a4:	48 83 ec 50          	sub    rsp,0x50
    13a8:	48 b8 00 00 00 00 00 	movabs rax,0x0
    13af:	00 00 00 
    13b2:	8b 00                	mov    eax,DWORD PTR [rax]
    13b4:	48 b9 00 00 00 00 00 	movabs rcx,0x0
    13bb:	00 00 00 
    13be:	8b 09                	mov    ecx,DWORD PTR [rcx]
    13c0:	29 c8                	sub    eax,ecx
    13c2:	89 45 fc             	mov    DWORD PTR [rbp-0x4],eax
    13c5:	48 b8 00 00 00 00 00 	movabs rax,0x0
    13cc:	00 00 00 
    13cf:	8b 00                	mov    eax,DWORD PTR [rax]
    13d1:	48 b9 00 00 00 00 00 	movabs rcx,0x0
    13d8:	00 00 00 
    13db:	8b 09                	mov    ecx,DWORD PTR [rcx]
    13dd:	29 c8                	sub    eax,ecx
    13df:	89 45 f8             	mov    DWORD PTR [rbp-0x8],eax
    13e2:	48 b8 00 00 00 00 00 	movabs rax,0x0
    13e9:	00 00 00 
    13ec:	8a 00                	mov    al,BYTE PTR [rax]
    13ee:	a8 01                	test   al,0x1
    13f0:	0f 84 35 00 00 00    	je     142b <_ZL19UpdateMousePerFramev+0x8b>
    13f6:	48 b8 00 00 00 00 00 	movabs rax,0x0
    13fd:	00 00 00 
    1400:	8b 08                	mov    ecx,DWORD PTR [rax]
    1402:	48 b8 00 00 00 00 00 	movabs rax,0x0
    1409:	00 00 00 
    140c:	89 08                	mov    DWORD PTR [rax],ecx
    140e:	48 b8 00 00 00 00 00 	movabs rax,0x0
    1415:	00 00 00 
    1418:	8b 08                	mov    ecx,DWORD PTR [rax]
    141a:	48 b8 00 00 00 00 00 	movabs rax,0x0
    1421:	00 00 00 
    1424:	89 08                	mov    DWORD PTR [rax],ecx
    1426:	e9 0f 01 00 00       	jmp    153a <_ZL19UpdateMousePerFramev+0x19a>
    142b:	c7 45 f4 00 00 01 00 	mov    DWORD PTR [rbp-0xc],0x10000
    1432:	81 7d fc 00 00 01 00 	cmp    DWORD PTR [rbp-0x4],0x10000
    1439:	0f 8f 27 00 00 00    	jg     1466 <_ZL19UpdateMousePerFramev+0xc6>
    143f:	81 7d fc 00 00 ff ff 	cmp    DWORD PTR [rbp-0x4],0xffff0000
    1446:	0f 8c 1a 00 00 00    	jl     1466 <_ZL19UpdateMousePerFramev+0xc6>
    144c:	81 7d f8 00 00 01 00 	cmp    DWORD PTR [rbp-0x8],0x10000
    1453:	0f 8f 0d 00 00 00    	jg     1466 <_ZL19UpdateMousePerFramev+0xc6>
    1459:	81 7d f8 00 00 ff ff 	cmp    DWORD PTR [rbp-0x8],0xffff0000
    1460:	0f 8d 35 00 00 00    	jge    149b <_ZL19UpdateMousePerFramev+0xfb>
    1466:	48 b8 00 00 00 00 00 	movabs rax,0x0
    146d:	00 00 00 
    1470:	8b 08                	mov    ecx,DWORD PTR [rax]
    1472:	48 b8 00 00 00 00 00 	movabs rax,0x0
    1479:	00 00 00 
    147c:	89 08                	mov    DWORD PTR [rax],ecx
    147e:	48 b8 00 00 00 00 00 	movabs rax,0x0
    1485:	00 00 00 
    1488:	8b 08                	mov    ecx,DWORD PTR [rax]
    148a:	48 b8 00 00 00 00 00 	movabs rax,0x0
    1491:	00 00 00 
    1494:	89 08                	mov    DWORD PTR [rax],ecx
    1496:	e9 9a 00 00 00       	jmp    1535 <_ZL19UpdateMousePerFramev+0x195>
    149b:	8b 55 fc             	mov    edx,DWORD PTR [rbp-0x4]
    149e:	d1 fa                	sar    edx,1
    14a0:	48 b8 00 00 00 00 00 	movabs rax,0x0
    14a7:	00 00 00 
    14aa:	8b 08                	mov    ecx,DWORD PTR [rax]
    14ac:	01 d1                	add    ecx,edx
    14ae:	89 08                	mov    DWORD PTR [rax],ecx
    14b0:	8b 55 f8             	mov    edx,DWORD PTR [rbp-0x8]
    14b3:	d1 fa                	sar    edx,1
    14b5:	48 b8 00 00 00 00 00 	movabs rax,0x0
    14bc:	00 00 00 
    14bf:	8b 08                	mov    ecx,DWORD PTR [rax]
    14c1:	01 d1                	add    ecx,edx
    14c3:	89 08                	mov    DWORD PTR [rax],ecx
    14c5:	c7 45 f0 00 40 00 00 	mov    DWORD PTR [rbp-0x10],0x4000
    14cc:	81 7d fc 00 c0 ff ff 	cmp    DWORD PTR [rbp-0x4],0xffffc000
    14d3:	0f 8e 25 00 00 00    	jle    14fe <_ZL19UpdateMousePerFramev+0x15e>
    14d9:	81 7d fc 00 40 00 00 	cmp    DWORD PTR [rbp-0x4],0x4000
    14e0:	0f 8d 18 00 00 00    	jge    14fe <_ZL19UpdateMousePerFramev+0x15e>
    14e6:	48 b8 00 00 00 00 00 	movabs rax,0x0
    14ed:	00 00 00 
    14f0:	8b 08                	mov    ecx,DWORD PTR [rax]
    14f2:	48 b8 00 00 00 00 00 	movabs rax,0x0
    14f9:	00 00 00 
    14fc:	89 08                	mov    DWORD PTR [rax],ecx
    14fe:	81 7d f8 00 c0 ff ff 	cmp    DWORD PTR [rbp-0x8],0xffffc000
    1505:	0f 8e 25 00 00 00    	jle    1530 <_ZL19UpdateMousePerFramev+0x190>
    150b:	81 7d f8 00 40 00 00 	cmp    DWORD PTR [rbp-0x8],0x4000
    1512:	0f 8d 18 00 00 00    	jge    1530 <_ZL19UpdateMousePerFramev+0x190>
    1518:	48 b8 00 00 00 00 00 	movabs rax,0x0
    151f:	00 00 00 
    1522:	8b 08                	mov    ecx,DWORD PTR [rax]
    1524:	48 b8 00 00 00 00 00 	movabs rax,0x0
    152b:	00 00 00 
    152e:	89 08                	mov    DWORD PTR [rax],ecx
    1530:	e9 00 00 00 00       	jmp    1535 <_ZL19UpdateMousePerFramev+0x195>
    1535:	e9 00 00 00 00       	jmp    153a <_ZL19UpdateMousePerFramev+0x19a>
    153a:	48 b8 00 00 00 00 00 	movabs rax,0x0
    1541:	00 00 00 
    1544:	8b 00                	mov    eax,DWORD PTR [rax]
    1546:	89 45 ec             	mov    DWORD PTR [rbp-0x14],eax
    1549:	48 b8 00 00 00 00 00 	movabs rax,0x0
    1550:	00 00 00 
    1553:	8b 00                	mov    eax,DWORD PTR [rax]
    1555:	89 45 e8             	mov    DWORD PTR [rbp-0x18],eax
    1558:	0f bf 4d ee          	movsx  ecx,WORD PTR [rbp-0x12]
    155c:	48 b8 00 00 00 00 00 	movabs rax,0x0
    1563:	00 00 00 
    1566:	89 08                	mov    DWORD PTR [rax],ecx
    1568:	0f bf 4d ea          	movsx  ecx,WORD PTR [rbp-0x16]
    156c:	48 b8 00 00 00 00 00 	movabs rax,0x0
    1573:	00 00 00 
    1576:	89 08                	mov    DWORD PTR [rax],ecx
    1578:	48 b8 00 00 00 00 00 	movabs rax,0x0
    157f:	00 00 00 
    1582:	8a 00                	mov    al,BYTE PTR [rax]
    1584:	a8 01                	test   al,0x1
    1586:	0f 84 73 02 00 00    	je     17ff <_ZL19UpdateMousePerFramev+0x45f>
    158c:	48 b8 00 00 00 00 00 	movabs rax,0x0
    1593:	00 00 00 
    1596:	8b 00                	mov    eax,DWORD PTR [rax]
    1598:	83 f8 ff             	cmp    eax,0xffffffff
    159b:	0f 84 64 00 00 00    	je     1605 <_ZL19UpdateMousePerFramev+0x265>
    15a1:	48 b8 00 00 00 00 00 	movabs rax,0x0
    15a8:	00 00 00 
    15ab:	8b 30                	mov    esi,DWORD PTR [rax]
    15ad:	48 b8 00 00 00 00 00 	movabs rax,0x0
    15b4:	00 00 00 
    15b7:	8b 00                	mov    eax,DWORD PTR [rax]
    15b9:	29 c6                	sub    esi,eax
    15bb:	48 b8 00 00 00 00 00 	movabs rax,0x0
    15c2:	00 00 00 
    15c5:	48 63 08             	movsxd rcx,DWORD PTR [rax]
    15c8:	48 6b c9 38          	imul   rcx,rcx,0x38
    15cc:	48 ba 00 00 00 00 00 	movabs rdx,0x0
    15d3:	00 00 00 
    15d6:	89 34 11             	mov    DWORD PTR [rcx+rdx*1],esi
    15d9:	48 b9 00 00 00 00 00 	movabs rcx,0x0
    15e0:	00 00 00 
    15e3:	8b 09                	mov    ecx,DWORD PTR [rcx]
    15e5:	48 be 00 00 00 00 00 	movabs rsi,0x0
    15ec:	00 00 00 
    15ef:	8b 36                	mov    esi,DWORD PTR [rsi]
    15f1:	29 f1                	sub    ecx,esi
    15f3:	48 63 00             	movsxd rax,DWORD PTR [rax]
    15f6:	48 6b c0 38          	imul   rax,rax,0x38
    15fa:	48 01 d0             	add    rax,rdx
    15fd:	89 48 04             	mov    DWORD PTR [rax+0x4],ecx
    1600:	e9 f5 01 00 00       	jmp    17fa <_ZL19UpdateMousePerFramev+0x45a>
    1605:	48 b8 00 00 00 00 00 	movabs rax,0x0
    160c:	00 00 00 
    160f:	48 8b 00             	mov    rax,QWORD PTR [rax]
    1612:	48 83 f8 00          	cmp    rax,0x0
    1616:	0f 84 d9 01 00 00    	je     17f5 <_ZL19UpdateMousePerFramev+0x455>
    161c:	48 b8 00 00 00 00 00 	movabs rax,0x0
    1623:	00 00 00 
    1626:	8b 00                	mov    eax,DWORD PTR [rax]
    1628:	48 b9 00 00 00 00 00 	movabs rcx,0x0
    162f:	00 00 00 
    1632:	8b 09                	mov    ecx,DWORD PTR [rcx]
    1634:	29 c8                	sub    eax,ecx
    1636:	89 45 e4             	mov    DWORD PTR [rbp-0x1c],eax
    1639:	48 b8 00 00 00 00 00 	movabs rax,0x0
    1640:	00 00 00 
    1643:	8b 00                	mov    eax,DWORD PTR [rax]
    1645:	48 b9 00 00 00 00 00 	movabs rcx,0x0
    164c:	00 00 00 
    164f:	8b 09                	mov    ecx,DWORD PTR [rcx]
    1651:	29 c8                	sub    eax,ecx
    1653:	89 45 e0             	mov    DWORD PTR [rbp-0x20],eax
    1656:	c7 45 dc 2c 01 00 00 	mov    DWORD PTR [rbp-0x24],0x12c
    165d:	c7 45 d8 c8 00 00 00 	mov    DWORD PTR [rbp-0x28],0xc8
    1664:	c7 45 d4 00 00 00 00 	mov    DWORD PTR [rbp-0x2c],0x0
    166b:	8b 45 d4             	mov    eax,DWORD PTR [rbp-0x2c]
    166e:	48 b9 00 00 00 00 00 	movabs rcx,0x0
    1675:	00 00 00 
    1678:	8b 09                	mov    ecx,DWORD PTR [rcx]
    167a:	39 c8                	cmp    eax,ecx
    167c:	0f 83 28 01 00 00    	jae    17aa <_ZL19UpdateMousePerFramev+0x40a>
    1682:	8b 45 d4             	mov    eax,DWORD PTR [rbp-0x2c]
    1685:	48 8d 0c c0          	lea    rcx,[rax+rax*8]
    1689:	48 b8 00 00 00 00 00 	movabs rax,0x0
    1690:	00 00 00 
    1693:	48 8b 04 c8          	mov    rax,QWORD PTR [rax+rcx*8]
    1697:	48 b9 00 00 00 00 00 	movabs rcx,0x0
    169e:	00 00 00 
    16a1:	48 8b 09             	mov    rcx,QWORD PTR [rcx]
    16a4:	48 39 c8             	cmp    rax,rcx
    16a7:	0f 85 ea 00 00 00    	jne    1797 <_ZL19UpdateMousePerFramev+0x3f7>
    16ad:	8b 45 d4             	mov    eax,DWORD PTR [rbp-0x2c]
    16b0:	48 8d 0c c0          	lea    rcx,[rax+rax*8]
    16b4:	48 b8 00 00 00 00 00 	movabs rax,0x0
    16bb:	00 00 00 
    16be:	48 89 45 b8          	mov    QWORD PTR [rbp-0x48],rax
    16c2:	48 b8 00 00 00 00 00 	movabs rax,0x0
    16c9:	00 00 00 
    16cc:	8b 04 c8             	mov    eax,DWORD PTR [rax+rcx*8]
    16cf:	89 45 dc             	mov    DWORD PTR [rbp-0x24],eax
    16d2:	8b 45 d4             	mov    eax,DWORD PTR [rbp-0x2c]
    16d5:	48 8d 0c c0          	lea    rcx,[rax+rax*8]
    16d9:	48 b8 00 00 00 00 00 	movabs rax,0x0
    16e0:	00 00 00 
    16e3:	8b 04 c8             	mov    eax,DWORD PTR [rax+rcx*8]
    16e6:	89 45 d8             	mov    DWORD PTR [rbp-0x28],eax
    16e9:	8b 45 d4             	mov    eax,DWORD PTR [rbp-0x2c]
    16ec:	48 c1 e0 03          	shl    rax,0x3
    16f0:	48 8d 0c c0          	lea    rcx,[rax+rax*8]
    16f4:	48 b8 00 00 00 00 00 	movabs rax,0x0
    16fb:	00 00 00 
    16fe:	48 89 45 b0          	mov    QWORD PTR [rbp-0x50],rax
    1702:	8b 34 08             	mov    esi,DWORD PTR [rax+rcx*1]
    1705:	83 c6 fe             	add    esi,0xfffffffe
    1708:	48 b8 00 00 00 00 00 	movabs rax,0x0
    170f:	00 00 00 
    1712:	8b 14 08             	mov    edx,DWORD PTR [rax+rcx*1]
    1715:	83 c2 e6             	add    edx,0xffffffe6
    1718:	8b 4d dc             	mov    ecx,DWORD PTR [rbp-0x24]
    171b:	83 c1 04             	add    ecx,0x4
    171e:	44 8b 45 d8          	mov    r8d,DWORD PTR [rbp-0x28]
    1722:	41 83 c0 1e          	add    r8d,0x1e
    1726:	48 bf 00 00 00 00 00 	movabs rdi,0x0
    172d:	00 00 00 
    1730:	48 b8 00 00 00 00 00 	movabs rax,0x0
    1737:	00 00 00 
    173a:	ff d0                	call   rax
    173c:	48 8b 4d b0          	mov    rcx,QWORD PTR [rbp-0x50]
    1740:	48 8b 45 b8          	mov    rax,QWORD PTR [rbp-0x48]
    1744:	8b 75 e4             	mov    esi,DWORD PTR [rbp-0x1c]
    1747:	8b 55 d4             	mov    edx,DWORD PTR [rbp-0x2c]
    174a:	48 8d 14 d2          	lea    rdx,[rdx+rdx*8]
    174e:	89 34 d1             	mov    DWORD PTR [rcx+rdx*8],esi
    1751:	8b 4d e0             	mov    ecx,DWORD PTR [rbp-0x20]
    1754:	8b 55 d4             	mov    edx,DWORD PTR [rbp-0x2c]
    1757:	48 8d 14 d2          	lea    rdx,[rdx+rdx*8]
    175b:	48 8d 04 d0          	lea    rax,[rax+rdx*8]
    175f:	89 48 0c             	mov    DWORD PTR [rax+0xc],ecx
    1762:	8b 75 e4             	mov    esi,DWORD PTR [rbp-0x1c]
    1765:	83 ee 02             	sub    esi,0x2
    1768:	8b 55 e0             	mov    edx,DWORD PTR [rbp-0x20]
    176b:	83 ea 1a             	sub    edx,0x1a
    176e:	8b 4d dc             	mov    ecx,DWORD PTR [rbp-0x24]
    1771:	83 c1 04             	add    ecx,0x4
    1774:	44 8b 45 d8          	mov    r8d,DWORD PTR [rbp-0x28]
    1778:	41 83 c0 1e          	add    r8d,0x1e
    177c:	48 bf 00 00 00 00 00 	movabs rdi,0x0
    1783:	00 00 00 
    1786:	48 b8 00 00 00 00 00 	movabs rax,0x0
    178d:	00 00 00 
    1790:	ff d0                	call   rax
    1792:	e9 13 00 00 00       	jmp    17aa <_ZL19UpdateMousePerFramev+0x40a>
    1797:	e9 00 00 00 00       	jmp    179c <_ZL19UpdateMousePerFramev+0x3fc>
    179c:	8b 45 d4             	mov    eax,DWORD PTR [rbp-0x2c]
    179f:	83 c0 01             	add    eax,0x1
    17a2:	89 45 d4             	mov    DWORD PTR [rbp-0x2c],eax
    17a5:	e9 c1 fe ff ff       	jmp    166b <_ZL19UpdateMousePerFramev+0x2cb>
    17aa:	8b 45 e4             	mov    eax,DWORD PTR [rbp-0x1c]
    17ad:	48 c1 e0 20          	shl    rax,0x20
    17b1:	8b 4d e0             	mov    ecx,DWORD PTR [rbp-0x20]
    17b4:	48 09 c8             	or     rax,rcx
    17b7:	48 89 45 c8          	mov    QWORD PTR [rbp-0x38],rax
    17bb:	8b 45 dc             	mov    eax,DWORD PTR [rbp-0x24]
    17be:	48 c1 e0 28          	shl    rax,0x28
    17c2:	8b 4d d8             	mov    ecx,DWORD PTR [rbp-0x28]
    17c5:	48 c1 e1 10          	shl    rcx,0x10
    17c9:	48 09 c8             	or     rax,rcx
    17cc:	48 83 c8 01          	or     rax,0x1
    17d0:	48 89 45 c0          	mov    QWORD PTR [rbp-0x40],rax
    17d4:	48 b8 00 00 00 00 00 	movabs rax,0x0
    17db:	00 00 00 
    17de:	48 8b 38             	mov    rdi,QWORD PTR [rax]
    17e1:	48 8b 75 c8          	mov    rsi,QWORD PTR [rbp-0x38]
    17e5:	48 8b 55 c0          	mov    rdx,QWORD PTR [rbp-0x40]
    17e9:	48 b8 00 00 00 00 00 	movabs rax,0x0
    17f0:	00 00 00 
    17f3:	ff d0                	call   rax
    17f5:	e9 00 00 00 00       	jmp    17fa <_ZL19UpdateMousePerFramev+0x45a>
    17fa:	e9 00 00 00 00       	jmp    17ff <_ZL19UpdateMousePerFramev+0x45f>
    17ff:	48 83 c4 50          	add    rsp,0x50
    1803:	5d                   	pop    rbp
    1804:	c3                   	ret
    1805:	66 66 2e 0f 1f 84 00 	data16 cs nop WORD PTR [rax+rax*1+0x0]
    180c:	00 00 00 00 

0000000000001810 <main>:
    1810:	55                   	push   rbp
    1811:	48 89 e5             	mov    rbp,rsp
    1814:	48 81 ec 60 04 00 00 	sub    rsp,0x460
    181b:	48 89 7d f8          	mov    QWORD PTR [rbp-0x8],rdi
    181f:	48 b8 00 00 00 00 00 	movabs rax,0x0
    1826:	00 00 00 
    1829:	ff d0                	call   rax
    182b:	a8 01                	test   al,0x1
    182d:	0f 85 0e 00 00 00    	jne    1841 <main+0x31>
    1833:	b8 ff ff ff ff       	mov    eax,0xffffffff
    1838:	48 81 c4 60 04 00 00 	add    rsp,0x460
    183f:	5d                   	pop    rbp
    1840:	c3                   	ret
    1841:	48 b8 00 00 00 00 00 	movabs rax,0x0
    1848:	00 00 00 
    184b:	ff d0                	call   rax
    184d:	48 bf 00 00 00 00 00 	movabs rdi,0x0
    1854:	00 00 00 
    1857:	48 b8 00 00 00 00 00 	movabs rax,0x0
    185e:	00 00 00 
    1861:	ff d0                	call   rax
    1863:	48 b8 00 00 00 00 00 	movabs rax,0x0
    186a:	00 00 00 
    186d:	48 89 85 70 fc ff ff 	mov    QWORD PTR [rbp-0x390],rax
    1874:	8b 00                	mov    eax,DWORD PTR [rax]
    1876:	c1 e0 10             	shl    eax,0x10
    1879:	48 b9 00 00 00 00 00 	movabs rcx,0x0
    1880:	00 00 00 
    1883:	89 01                	mov    DWORD PTR [rcx],eax
    1885:	48 b8 00 00 00 00 00 	movabs rax,0x0
    188c:	00 00 00 
    188f:	48 89 85 78 fc ff ff 	mov    QWORD PTR [rbp-0x388],rax
    1896:	8b 10                	mov    edx,DWORD PTR [rax]
    1898:	c1 e2 10             	shl    edx,0x10
    189b:	48 b8 00 00 00 00 00 	movabs rax,0x0
    18a2:	00 00 00 
    18a5:	89 10                	mov    DWORD PTR [rax],edx
    18a7:	8b 11                	mov    edx,DWORD PTR [rcx]
    18a9:	48 b9 00 00 00 00 00 	movabs rcx,0x0
    18b0:	00 00 00 
    18b3:	89 11                	mov    DWORD PTR [rcx],edx
    18b5:	8b 08                	mov    ecx,DWORD PTR [rax]
    18b7:	48 b8 00 00 00 00 00 	movabs rax,0x0
    18be:	00 00 00 
    18c1:	89 08                	mov    DWORD PTR [rax],ecx
    18c3:	48 b8 00 00 00 00 00 	movabs rax,0x0
    18ca:	00 00 00 
    18cd:	ff d0                	call   rax
    18cf:	48 bf 00 00 00 00 00 	movabs rdi,0x0
    18d6:	00 00 00 
    18d9:	48 b8 00 00 00 00 00 	movabs rax,0x0
    18e0:	00 00 00 
    18e3:	ff d0                	call   rax
    18e5:	48 8b 8d 70 fc ff ff 	mov    rcx,QWORD PTR [rbp-0x390]
    18ec:	48 8b 85 78 fc ff ff 	mov    rax,QWORD PTR [rbp-0x388]
    18f3:	c7 45 f4 3c 00 00 00 	mov    DWORD PTR [rbp-0xc],0x3c
    18fa:	c7 45 f0 10 00 00 00 	mov    DWORD PTR [rbp-0x10],0x10
    1901:	8b 09                	mov    ecx,DWORD PTR [rcx]
    1903:	89 4d ec             	mov    DWORD PTR [rbp-0x14],ecx
    1906:	8b 00                	mov    eax,DWORD PTR [rax]
    1908:	89 45 e8             	mov    DWORD PTR [rbp-0x18],eax
    190b:	c7 45 e4 00 00 00 00 	mov    DWORD PTR [rbp-0x1c],0x0
    1912:	48 b8 00 00 00 00 00 	movabs rax,0x0
    1919:	00 00 00 
    191c:	8a 00                	mov    al,BYTE PTR [rax]
    191e:	24 01                	and    al,0x1
    1920:	88 45 e3             	mov    BYTE PTR [rbp-0x1d],al
    1923:	c7 85 08 ff ff ff 00 	mov    DWORD PTR [rbp-0xf8],0x0
    192a:	00 00 00 
    192d:	8b 85 08 ff ff ff    	mov    eax,DWORD PTR [rbp-0xf8]
    1933:	48 b9 00 00 00 00 00 	movabs rcx,0x0
    193a:	00 00 00 
    193d:	8b 09                	mov    ecx,DWORD PTR [rcx]
    193f:	39 c8                	cmp    eax,ecx
    1941:	0f 8d ce 00 00 00    	jge    1a15 <main+0x205>
    1947:	48 63 85 08 ff ff ff 	movsxd rax,DWORD PTR [rbp-0xf8]
    194e:	48 6b d0 38          	imul   rdx,rax,0x38
    1952:	48 b9 00 00 00 00 00 	movabs rcx,0x0
    1959:	00 00 00 
    195c:	8b 14 0a             	mov    edx,DWORD PTR [rdx+rcx*1]
    195f:	89 54 85 b0          	mov    DWORD PTR [rbp+rax*4-0x50],edx
    1963:	48 63 85 08 ff ff ff 	movsxd rax,DWORD PTR [rbp-0xf8]
    196a:	48 6b d0 38          	imul   rdx,rax,0x38
    196e:	48 be 00 00 00 00 00 	movabs rsi,0x0
    1975:	00 00 00 
    1978:	8b 14 32             	mov    edx,DWORD PTR [rdx+rsi*1]
    197b:	89 54 85 80          	mov    DWORD PTR [rbp+rax*4-0x80],edx
    197f:	48 63 85 08 ff ff ff 	movsxd rax,DWORD PTR [rbp-0xf8]
    1986:	48 6b d0 38          	imul   rdx,rax,0x38
    198a:	48 be 00 00 00 00 00 	movabs rsi,0x0
    1991:	00 00 00 
    1994:	8b 14 32             	mov    edx,DWORD PTR [rdx+rsi*1]
    1997:	89 94 85 50 ff ff ff 	mov    DWORD PTR [rbp+rax*4-0xb0],edx
    199e:	48 63 85 08 ff ff ff 	movsxd rax,DWORD PTR [rbp-0xf8]
    19a5:	48 6b d0 38          	imul   rdx,rax,0x38
    19a9:	48 be 00 00 00 00 00 	movabs rsi,0x0
    19b0:	00 00 00 
    19b3:	8b 14 32             	mov    edx,DWORD PTR [rdx+rsi*1]
    19b6:	89 94 85 20 ff ff ff 	mov    DWORD PTR [rbp+rax*4-0xe0],edx
    19bd:	48 63 85 08 ff ff ff 	movsxd rax,DWORD PTR [rbp-0xf8]
    19c4:	48 6b d0 38          	imul   rdx,rax,0x38
    19c8:	48 be 00 00 00 00 00 	movabs rsi,0x0
    19cf:	00 00 00 
    19d2:	8a 14 32             	mov    dl,BYTE PTR [rdx+rsi*1]
    19d5:	80 e2 01             	and    dl,0x1
    19d8:	88 94 05 16 ff ff ff 	mov    BYTE PTR [rbp+rax*1-0xea],dl
    19df:	48 63 85 08 ff ff ff 	movsxd rax,DWORD PTR [rbp-0xf8]
    19e6:	48 6b c0 38          	imul   rax,rax,0x38
    19ea:	48 01 c8             	add    rax,rcx
    19ed:	8a 48 22             	mov    cl,BYTE PTR [rax+0x22]
    19f0:	48 63 85 08 ff ff ff 	movsxd rax,DWORD PTR [rbp-0xf8]
    19f7:	80 e1 01             	and    cl,0x1
    19fa:	88 8c 05 0c ff ff ff 	mov    BYTE PTR [rbp+rax*1-0xf4],cl
    1a01:	8b 85 08 ff ff ff    	mov    eax,DWORD PTR [rbp-0xf8]
    1a07:	83 c0 01             	add    eax,0x1
    1a0a:	89 85 08 ff ff ff    	mov    DWORD PTR [rbp-0xf8],eax
    1a10:	e9 18 ff ff ff       	jmp    192d <main+0x11d>
    1a15:	c6 85 07 ff ff ff 01 	mov    BYTE PTR [rbp-0xf9],0x1
    1a1c:	48 b8 00 00 00 00 00 	movabs rax,0x0
    1a23:	00 00 00 
    1a26:	ff d0                	call   rax
    1a28:	48 89 85 f8 fe ff ff 	mov    QWORD PTR [rbp-0x108],rax
    1a2f:	48 bf 00 00 00 00 00 	movabs rdi,0x0
    1a36:	00 00 00 
    1a39:	48 b8 00 00 00 00 00 	movabs rax,0x0
    1a40:	00 00 00 
    1a43:	ff d0                	call   rax
    1a45:	48 b8 00 00 00 00 00 	movabs rax,0x0
    1a4c:	00 00 00 
    1a4f:	ff d0                	call   rax
    1a51:	48 b8 00 00 00 00 00 	movabs rax,0x0
    1a58:	00 00 00 
    1a5b:	ff d0                	call   rax
    1a5d:	48 b8 00 00 00 00 00 	movabs rax,0x0
    1a64:	00 00 00 
    1a67:	ff d0                	call   rax
    1a69:	f6 85 07 ff ff ff 01 	test   BYTE PTR [rbp-0xf9],0x1
    1a70:	0f 84 41 00 00 00    	je     1ab7 <main+0x2a7>
    1a76:	48 b8 00 00 00 00 00 	movabs rax,0x0
    1a7d:	00 00 00 
    1a80:	ff d0                	call   rax
    1a82:	89 85 6c fc ff ff    	mov    DWORD PTR [rbp-0x394],eax
    1a88:	48 b8 00 00 00 00 00 	movabs rax,0x0
    1a8f:	00 00 00 
    1a92:	ff d0                	call   rax
    1a94:	8b 8d 6c fc ff ff    	mov    ecx,DWORD PTR [rbp-0x394]
    1a9a:	41 89 c0             	mov    r8d,eax
    1a9d:	48 bf 00 00 00 00 00 	movabs rdi,0x0
    1aa4:	00 00 00 
    1aa7:	48 b8 00 00 00 00 00 	movabs rax,0x0
    1aae:	00 00 00 
    1ab1:	31 d2                	xor    edx,edx
    1ab3:	89 d6                	mov    esi,edx
    1ab5:	ff d0                	call   rax
    1ab7:	c7 85 f4 fe ff ff 00 	mov    DWORD PTR [rbp-0x10c],0x0
    1abe:	00 00 00 
    1ac1:	8b 85 f4 fe ff ff    	mov    eax,DWORD PTR [rbp-0x10c]
    1ac7:	48 b9 00 00 00 00 00 	movabs rcx,0x0
    1ace:	00 00 00 
    1ad1:	8b 09                	mov    ecx,DWORD PTR [rcx]
    1ad3:	39 c8                	cmp    eax,ecx
    1ad5:	0f 83 95 00 00 00    	jae    1b70 <main+0x360>
    1adb:	8b 85 f4 fe ff ff    	mov    eax,DWORD PTR [rbp-0x10c]
    1ae1:	48 8d 0c c0          	lea    rcx,[rax+rax*8]
    1ae5:	48 b8 00 00 00 00 00 	movabs rax,0x0
    1aec:	00 00 00 
    1aef:	48 8d 04 c8          	lea    rax,[rax+rcx*8]
    1af3:	48 89 85 e8 fe ff ff 	mov    QWORD PTR [rbp-0x118],rax
    1afa:	48 8b 85 e8 fe ff ff 	mov    rax,QWORD PTR [rbp-0x118]
    1b01:	83 78 18 00          	cmp    DWORD PTR [rax+0x18],0x0
    1b05:	0f 84 4c 00 00 00    	je     1b57 <main+0x347>
    1b0b:	48 8b 85 e8 fe ff ff 	mov    rax,QWORD PTR [rbp-0x118]
    1b12:	8b 70 08             	mov    esi,DWORD PTR [rax+0x8]
    1b15:	83 ee 02             	sub    esi,0x2
    1b18:	48 8b 85 e8 fe ff ff 	mov    rax,QWORD PTR [rbp-0x118]
    1b1f:	8b 50 0c             	mov    edx,DWORD PTR [rax+0xc]
    1b22:	83 ea 1a             	sub    edx,0x1a
    1b25:	48 8b 85 e8 fe ff ff 	mov    rax,QWORD PTR [rbp-0x118]
    1b2c:	8b 48 10             	mov    ecx,DWORD PTR [rax+0x10]
    1b2f:	83 c1 04             	add    ecx,0x4
    1b32:	48 8b 85 e8 fe ff ff 	mov    rax,QWORD PTR [rbp-0x118]
    1b39:	44 8b 40 14          	mov    r8d,DWORD PTR [rax+0x14]
    1b3d:	41 83 c0 1e          	add    r8d,0x1e
    1b41:	48 bf 00 00 00 00 00 	movabs rdi,0x0
    1b48:	00 00 00 
    1b4b:	48 b8 00 00 00 00 00 	movabs rax,0x0
    1b52:	00 00 00 
    1b55:	ff d0                	call   rax
    1b57:	e9 00 00 00 00       	jmp    1b5c <main+0x34c>
    1b5c:	8b 85 f4 fe ff ff    	mov    eax,DWORD PTR [rbp-0x10c]
    1b62:	83 c0 01             	add    eax,0x1
    1b65:	89 85 f4 fe ff ff    	mov    DWORD PTR [rbp-0x10c],eax
    1b6b:	e9 51 ff ff ff       	jmp    1ac1 <main+0x2b1>
    1b70:	8b 75 ec             	mov    esi,DWORD PTR [rbp-0x14]
    1b73:	83 c6 fe             	add    esi,0xfffffffe
    1b76:	8b 55 e8             	mov    edx,DWORD PTR [rbp-0x18]
    1b79:	83 c2 fe             	add    edx,0xfffffffe
    1b7c:	48 bf 00 00 00 00 00 	movabs rdi,0x0
    1b83:	00 00 00 
    1b86:	48 b8 00 00 00 00 00 	movabs rax,0x0
    1b8d:	00 00 00 
    1b90:	b9 14 00 00 00       	mov    ecx,0x14
    1b95:	41 b8 18 00 00 00    	mov    r8d,0x18
    1b9b:	ff d0                	call   rax
    1b9d:	48 b8 00 00 00 00 00 	movabs rax,0x0
    1ba4:	00 00 00 
    1ba7:	8b 30                	mov    esi,DWORD PTR [rax]
    1ba9:	83 c6 fe             	add    esi,0xfffffffe
    1bac:	48 b8 00 00 00 00 00 	movabs rax,0x0
    1bb3:	00 00 00 
    1bb6:	8b 10                	mov    edx,DWORD PTR [rax]
    1bb8:	83 ea 02             	sub    edx,0x2
    1bbb:	48 bf 00 00 00 00 00 	movabs rdi,0x0
    1bc2:	00 00 00 
    1bc5:	48 b8 00 00 00 00 00 	movabs rax,0x0
    1bcc:	00 00 00 
    1bcf:	b9 14 00 00 00       	mov    ecx,0x14
    1bd4:	41 b8 18 00 00 00    	mov    r8d,0x18
    1bda:	ff d0                	call   rax
    1bdc:	c7 85 e4 fe ff ff 00 	mov    DWORD PTR [rbp-0x11c],0x0
    1be3:	00 00 00 
    1be6:	8b 85 e4 fe ff ff    	mov    eax,DWORD PTR [rbp-0x11c]
    1bec:	48 b9 00 00 00 00 00 	movabs rcx,0x0
    1bf3:	00 00 00 
    1bf6:	8b 09                	mov    ecx,DWORD PTR [rcx]
    1bf8:	39 c8                	cmp    eax,ecx
    1bfa:	0f 8d a2 02 00 00    	jge    1ea2 <main+0x692>
    1c00:	48 63 85 e4 fe ff ff 	movsxd rax,DWORD PTR [rbp-0x11c]
    1c07:	48 6b c0 38          	imul   rax,rax,0x38
    1c0b:	48 b9 00 00 00 00 00 	movabs rcx,0x0
    1c12:	00 00 00 
    1c15:	48 01 c8             	add    rax,rcx
    1c18:	8a 40 21             	mov    al,BYTE PTR [rax+0x21]
    1c1b:	24 01                	and    al,0x1
    1c1d:	0f b6 c0             	movzx  eax,al
    1c20:	48 63 8d e4 fe ff ff 	movsxd rcx,DWORD PTR [rbp-0x11c]
    1c27:	8a 8c 0d 16 ff ff ff 	mov    cl,BYTE PTR [rbp+rcx*1-0xea]
    1c2e:	80 e1 01             	and    cl,0x1
    1c31:	0f b6 c9             	movzx  ecx,cl
    1c34:	39 c8                	cmp    eax,ecx
    1c36:	0f 85 3c 00 00 00    	jne    1c78 <main+0x468>
    1c3c:	48 63 85 e4 fe ff ff 	movsxd rax,DWORD PTR [rbp-0x11c]
    1c43:	48 6b c0 38          	imul   rax,rax,0x38
    1c47:	48 b9 00 00 00 00 00 	movabs rcx,0x0
    1c4e:	00 00 00 
    1c51:	48 01 c8             	add    rax,rcx
    1c54:	8a 40 22             	mov    al,BYTE PTR [rax+0x22]
    1c57:	24 01                	and    al,0x1
    1c59:	0f b6 c0             	movzx  eax,al
    1c5c:	48 63 8d e4 fe ff ff 	movsxd rcx,DWORD PTR [rbp-0x11c]
    1c63:	8a 8c 0d 0c ff ff ff 	mov    cl,BYTE PTR [rbp+rcx*1-0xf4]
    1c6a:	80 e1 01             	and    cl,0x1
    1c6d:	0f b6 c9             	movzx  ecx,cl
    1c70:	39 c8                	cmp    eax,ecx
    1c72:	0f 84 bc 00 00 00    	je     1d34 <main+0x524>
    1c78:	48 63 85 e4 fe ff ff 	movsxd rax,DWORD PTR [rbp-0x11c]
    1c7f:	8b 74 85 b0          	mov    esi,DWORD PTR [rbp+rax*4-0x50]
    1c83:	83 c6 fe             	add    esi,0xfffffffe
    1c86:	8b 54 85 80          	mov    edx,DWORD PTR [rbp+rax*4-0x80]
    1c8a:	83 c2 fe             	add    edx,0xfffffffe
    1c8d:	8b 8c 85 50 ff ff ff 	mov    ecx,DWORD PTR [rbp+rax*4-0xb0]
    1c94:	83 c1 04             	add    ecx,0x4
    1c97:	44 8b 84 85 20 ff ff 	mov    r8d,DWORD PTR [rbp+rax*4-0xe0]
    1c9e:	ff 
    1c9f:	41 83 c0 04          	add    r8d,0x4
    1ca3:	48 bf 00 00 00 00 00 	movabs rdi,0x0
    1caa:	00 00 00 
    1cad:	48 89 bd 58 fc ff ff 	mov    QWORD PTR [rbp-0x3a8],rdi
    1cb4:	48 b8 00 00 00 00 00 	movabs rax,0x0
    1cbb:	00 00 00 
    1cbe:	48 89 85 60 fc ff ff 	mov    QWORD PTR [rbp-0x3a0],rax
    1cc5:	ff d0                	call   rax
    1cc7:	48 8b bd 58 fc ff ff 	mov    rdi,QWORD PTR [rbp-0x3a8]
    1cce:	48 8b 85 60 fc ff ff 	mov    rax,QWORD PTR [rbp-0x3a0]
    1cd5:	48 63 8d e4 fe ff ff 	movsxd rcx,DWORD PTR [rbp-0x11c]
    1cdc:	4c 6b c1 38          	imul   r8,rcx,0x38
    1ce0:	48 b9 00 00 00 00 00 	movabs rcx,0x0
    1ce7:	00 00 00 
    1cea:	41 8b 34 08          	mov    esi,DWORD PTR [r8+rcx*1]
    1cee:	83 c6 fe             	add    esi,0xfffffffe
    1cf1:	48 b9 00 00 00 00 00 	movabs rcx,0x0
    1cf8:	00 00 00 
    1cfb:	41 8b 14 08          	mov    edx,DWORD PTR [r8+rcx*1]
    1cff:	83 c2 fe             	add    edx,0xfffffffe
    1d02:	48 b9 00 00 00 00 00 	movabs rcx,0x0
    1d09:	00 00 00 
    1d0c:	41 8b 0c 08          	mov    ecx,DWORD PTR [r8+rcx*1]
    1d10:	83 c1 04             	add    ecx,0x4
    1d13:	49 b9 00 00 00 00 00 	movabs r9,0x0
    1d1a:	00 00 00 
    1d1d:	47 8b 04 08          	mov    r8d,DWORD PTR [r8+r9*1]
    1d21:	41 83 c0 04          	add    r8d,0x4
    1d25:	ff d0                	call   rax
    1d27:	48 b8 00 00 00 00 00 	movabs rax,0x0
    1d2e:	00 00 00 
    1d31:	c6 00 01             	mov    BYTE PTR [rax],0x1
    1d34:	48 63 85 e4 fe ff ff 	movsxd rax,DWORD PTR [rbp-0x11c]
    1d3b:	48 6b c0 38          	imul   rax,rax,0x38
    1d3f:	48 b9 00 00 00 00 00 	movabs rcx,0x0
    1d46:	00 00 00 
    1d49:	48 01 c8             	add    rax,rcx
    1d4c:	8b 00                	mov    eax,DWORD PTR [rax]
    1d4e:	48 63 8d e4 fe ff ff 	movsxd rcx,DWORD PTR [rbp-0x11c]
    1d55:	3b 44 8d b0          	cmp    eax,DWORD PTR [rbp+rcx*4-0x50]
    1d59:	0f 85 8a 00 00 00    	jne    1de9 <main+0x5d9>
    1d5f:	48 63 85 e4 fe ff ff 	movsxd rax,DWORD PTR [rbp-0x11c]
    1d66:	48 6b c0 38          	imul   rax,rax,0x38
    1d6a:	48 b9 00 00 00 00 00 	movabs rcx,0x0
    1d71:	00 00 00 
    1d74:	48 01 c8             	add    rax,rcx
    1d77:	8b 40 04             	mov    eax,DWORD PTR [rax+0x4]
    1d7a:	48 63 8d e4 fe ff ff 	movsxd rcx,DWORD PTR [rbp-0x11c]
    1d81:	3b 44 8d 80          	cmp    eax,DWORD PTR [rbp+rcx*4-0x80]
    1d85:	0f 85 5e 00 00 00    	jne    1de9 <main+0x5d9>
    1d8b:	48 63 85 e4 fe ff ff 	movsxd rax,DWORD PTR [rbp-0x11c]
    1d92:	48 6b c0 38          	imul   rax,rax,0x38
    1d96:	48 b9 00 00 00 00 00 	movabs rcx,0x0
    1d9d:	00 00 00 
    1da0:	48 01 c8             	add    rax,rcx
    1da3:	8b 40 08             	mov    eax,DWORD PTR [rax+0x8]
    1da6:	48 63 8d e4 fe ff ff 	movsxd rcx,DWORD PTR [rbp-0x11c]
    1dad:	3b 84 8d 50 ff ff ff 	cmp    eax,DWORD PTR [rbp+rcx*4-0xb0]
    1db4:	0f 85 2f 00 00 00    	jne    1de9 <main+0x5d9>
    1dba:	48 63 85 e4 fe ff ff 	movsxd rax,DWORD PTR [rbp-0x11c]
    1dc1:	48 6b c0 38          	imul   rax,rax,0x38
    1dc5:	48 b9 00 00 00 00 00 	movabs rcx,0x0
    1dcc:	00 00 00 
    1dcf:	48 01 c8             	add    rax,rcx
    1dd2:	8b 40 0c             	mov    eax,DWORD PTR [rax+0xc]
    1dd5:	48 63 8d e4 fe ff ff 	movsxd rcx,DWORD PTR [rbp-0x11c]
    1ddc:	3b 84 8d 20 ff ff ff 	cmp    eax,DWORD PTR [rbp+rcx*4-0xe0]
    1de3:	0f 84 a0 00 00 00    	je     1e89 <main+0x679>
    1de9:	48 63 85 e4 fe ff ff 	movsxd rax,DWORD PTR [rbp-0x11c]
    1df0:	8b 74 85 b0          	mov    esi,DWORD PTR [rbp+rax*4-0x50]
    1df4:	83 c6 fe             	add    esi,0xfffffffe
    1df7:	8b 54 85 80          	mov    edx,DWORD PTR [rbp+rax*4-0x80]
    1dfb:	83 c2 fe             	add    edx,0xfffffffe
    1dfe:	8b 8c 85 50 ff ff ff 	mov    ecx,DWORD PTR [rbp+rax*4-0xb0]
    1e05:	83 c1 04             	add    ecx,0x4
    1e08:	44 8b 84 85 20 ff ff 	mov    r8d,DWORD PTR [rbp+rax*4-0xe0]
    1e0f:	ff 
    1e10:	41 83 c0 04          	add    r8d,0x4
    1e14:	48 bf 00 00 00 00 00 	movabs rdi,0x0
    1e1b:	00 00 00 
    1e1e:	48 b8 00 00 00 00 00 	movabs rax,0x0
    1e25:	00 00 00 
    1e28:	ff d0                	call   rax
    1e2a:	48 63 85 e4 fe ff ff 	movsxd rax,DWORD PTR [rbp-0x11c]
    1e31:	48 6b c8 38          	imul   rcx,rax,0x38
    1e35:	48 ba 00 00 00 00 00 	movabs rdx,0x0
    1e3c:	00 00 00 
    1e3f:	48 89 c8             	mov    rax,rcx
    1e42:	48 01 d0             	add    rax,rdx
    1e45:	8b 34 11             	mov    esi,DWORD PTR [rcx+rdx*1]
    1e48:	83 c6 fe             	add    esi,0xfffffffe
    1e4b:	48 ba 00 00 00 00 00 	movabs rdx,0x0
    1e52:	00 00 00 
    1e55:	8b 14 11             	mov    edx,DWORD PTR [rcx+rdx*1]
    1e58:	83 c2 fe             	add    edx,0xfffffffe
    1e5b:	48 bf 00 00 00 00 00 	movabs rdi,0x0
    1e62:	00 00 00 
    1e65:	8b 0c 39             	mov    ecx,DWORD PTR [rcx+rdi*1]
    1e68:	83 c1 04             	add    ecx,0x4
    1e6b:	44 8b 40 0c          	mov    r8d,DWORD PTR [rax+0xc]
    1e6f:	41 83 c0 04          	add    r8d,0x4
    1e73:	48 bf 00 00 00 00 00 	movabs rdi,0x0
    1e7a:	00 00 00 
    1e7d:	48 b8 00 00 00 00 00 	movabs rax,0x0
    1e84:	00 00 00 
    1e87:	ff d0                	call   rax
    1e89:	e9 00 00 00 00       	jmp    1e8e <main+0x67e>
    1e8e:	8b 85 e4 fe ff ff    	mov    eax,DWORD PTR [rbp-0x11c]
    1e94:	83 c0 01             	add    eax,0x1
    1e97:	89 85 e4 fe ff ff    	mov    DWORD PTR [rbp-0x11c],eax
    1e9d:	e9 44 fd ff ff       	jmp    1be6 <main+0x3d6>
    1ea2:	48 b8 00 00 00 00 00 	movabs rax,0x0
    1ea9:	00 00 00 
    1eac:	ff d0                	call   rax
    1eae:	89 85 e0 fe ff ff    	mov    DWORD PTR [rbp-0x120],eax
    1eb4:	8b 85 e0 fe ff ff    	mov    eax,DWORD PTR [rbp-0x120]
    1eba:	3b 45 e4             	cmp    eax,DWORD PTR [rbp-0x1c]
    1ebd:	0f 85 22 00 00 00    	jne    1ee5 <main+0x6d5>
    1ec3:	48 b8 00 00 00 00 00 	movabs rax,0x0
    1eca:	00 00 00 
    1ecd:	8a 00                	mov    al,BYTE PTR [rax]
    1ecf:	24 01                	and    al,0x1
    1ed1:	0f b6 c0             	movzx  eax,al
    1ed4:	8a 4d e3             	mov    cl,BYTE PTR [rbp-0x1d]
    1ed7:	80 e1 01             	and    cl,0x1
    1eda:	0f b6 c9             	movzx  ecx,cl
    1edd:	39 c8                	cmp    eax,ecx
    1edf:	0f 84 bb 00 00 00    	je     1fa0 <main+0x790>
    1ee5:	c7 85 dc fe ff ff 28 	mov    DWORD PTR [rbp-0x124],0x28
    1eec:	00 00 00 
    1eef:	48 b8 00 00 00 00 00 	movabs rax,0x0
    1ef6:	00 00 00 
    1ef9:	ff d0                	call   rax
    1efb:	8b 8d dc fe ff ff    	mov    ecx,DWORD PTR [rbp-0x124]
    1f01:	29 c8                	sub    eax,ecx
    1f03:	89 85 54 fc ff ff    	mov    DWORD PTR [rbp-0x3ac],eax
    1f09:	48 b8 00 00 00 00 00 	movabs rax,0x0
    1f10:	00 00 00 
    1f13:	ff d0                	call   rax
    1f15:	8b 95 54 fc ff ff    	mov    edx,DWORD PTR [rbp-0x3ac]
    1f1b:	89 c1                	mov    ecx,eax
    1f1d:	44 8b 85 dc fe ff ff 	mov    r8d,DWORD PTR [rbp-0x124]
    1f24:	48 bf 00 00 00 00 00 	movabs rdi,0x0
    1f2b:	00 00 00 
    1f2e:	48 b8 00 00 00 00 00 	movabs rax,0x0
    1f35:	00 00 00 
    1f38:	31 f6                	xor    esi,esi
    1f3a:	ff d0                	call   rax
    1f3c:	48 b8 00 00 00 00 00 	movabs rax,0x0
    1f43:	00 00 00 
    1f46:	8a 00                	mov    al,BYTE PTR [rax]
    1f48:	a8 01                	test   al,0x1
    1f4a:	0f 85 0a 00 00 00    	jne    1f5a <main+0x74a>
    1f50:	f6 45 e3 01          	test   BYTE PTR [rbp-0x1d],0x1
    1f54:	0f 84 41 00 00 00    	je     1f9b <main+0x78b>
    1f5a:	48 b8 00 00 00 00 00 	movabs rax,0x0
    1f61:	00 00 00 
    1f64:	ff d0                	call   rax
    1f66:	89 85 50 fc ff ff    	mov    DWORD PTR [rbp-0x3b0],eax
    1f6c:	48 b8 00 00 00 00 00 	movabs rax,0x0
    1f73:	00 00 00 
    1f76:	ff d0                	call   rax
    1f78:	8b 8d 50 fc ff ff    	mov    ecx,DWORD PTR [rbp-0x3b0]
    1f7e:	41 89 c0             	mov    r8d,eax
    1f81:	48 bf 00 00 00 00 00 	movabs rdi,0x0
    1f88:	00 00 00 
    1f8b:	48 b8 00 00 00 00 00 	movabs rax,0x0
    1f92:	00 00 00 
    1f95:	31 d2                	xor    edx,edx
    1f97:	89 d6                	mov    esi,edx
    1f99:	ff d0                	call   rax
    1f9b:	e9 00 00 00 00       	jmp    1fa0 <main+0x790>
    1fa0:	8b 85 e0 fe ff ff    	mov    eax,DWORD PTR [rbp-0x120]
    1fa6:	48 b9 00 00 00 00 00 	movabs rcx,0x0
    1fad:	00 00 00 
    1fb0:	8b 09                	mov    ecx,DWORD PTR [rcx]
    1fb2:	39 c8                	cmp    eax,ecx
    1fb4:	0f 84 69 00 00 00    	je     2023 <main+0x813>
    1fba:	c7 85 d8 fe ff ff 28 	mov    DWORD PTR [rbp-0x128],0x28
    1fc1:	00 00 00 
    1fc4:	48 b8 00 00 00 00 00 	movabs rax,0x0
    1fcb:	00 00 00 
    1fce:	ff d0                	call   rax
    1fd0:	8b 8d d8 fe ff ff    	mov    ecx,DWORD PTR [rbp-0x128]
    1fd6:	29 c8                	sub    eax,ecx
    1fd8:	89 85 4c fc ff ff    	mov    DWORD PTR [rbp-0x3b4],eax
    1fde:	48 b8 00 00 00 00 00 	movabs rax,0x0
    1fe5:	00 00 00 
    1fe8:	ff d0                	call   rax
    1fea:	8b 95 4c fc ff ff    	mov    edx,DWORD PTR [rbp-0x3b4]
    1ff0:	89 c1                	mov    ecx,eax
    1ff2:	44 8b 85 d8 fe ff ff 	mov    r8d,DWORD PTR [rbp-0x128]
    1ff9:	48 bf 00 00 00 00 00 	movabs rdi,0x0
    2000:	00 00 00 
    2003:	48 b8 00 00 00 00 00 	movabs rax,0x0
    200a:	00 00 00 
    200d:	31 f6                	xor    esi,esi
    200f:	ff d0                	call   rax
    2011:	8b 8d e0 fe ff ff    	mov    ecx,DWORD PTR [rbp-0x120]
    2017:	48 b8 00 00 00 00 00 	movabs rax,0x0
    201e:	00 00 00 
    2021:	89 08                	mov    DWORD PTR [rax],ecx
    2023:	48 b8 00 00 00 00 00 	movabs rax,0x0
    202a:	00 00 00 
    202d:	8a 00                	mov    al,BYTE PTR [rax]
    202f:	a8 01                	test   al,0x1
    2031:	0f 84 bb 00 00 00    	je     20f2 <main+0x8e2>
    2037:	c7 85 d4 fe ff ff 28 	mov    DWORD PTR [rbp-0x12c],0x28
    203e:	00 00 00 
    2041:	48 b8 00 00 00 00 00 	movabs rax,0x0
    2048:	00 00 00 
    204b:	ff d0                	call   rax
    204d:	8b 8d d4 fe ff ff    	mov    ecx,DWORD PTR [rbp-0x12c]
    2053:	29 c8                	sub    eax,ecx
    2055:	89 85 48 fc ff ff    	mov    DWORD PTR [rbp-0x3b8],eax
    205b:	48 b8 00 00 00 00 00 	movabs rax,0x0
    2062:	00 00 00 
    2065:	ff d0                	call   rax
    2067:	8b 95 48 fc ff ff    	mov    edx,DWORD PTR [rbp-0x3b8]
    206d:	89 c1                	mov    ecx,eax
    206f:	44 8b 85 d4 fe ff ff 	mov    r8d,DWORD PTR [rbp-0x12c]
    2076:	48 bf 00 00 00 00 00 	movabs rdi,0x0
    207d:	00 00 00 
    2080:	48 b8 00 00 00 00 00 	movabs rax,0x0
    2087:	00 00 00 
    208a:	31 f6                	xor    esi,esi
    208c:	ff d0                	call   rax
    208e:	48 b8 00 00 00 00 00 	movabs rax,0x0
    2095:	00 00 00 
    2098:	8a 00                	mov    al,BYTE PTR [rax]
    209a:	a8 01                	test   al,0x1
    209c:	0f 85 0a 00 00 00    	jne    20ac <main+0x89c>
    20a2:	f6 45 e3 01          	test   BYTE PTR [rbp-0x1d],0x1
    20a6:	0f 84 41 00 00 00    	je     20ed <main+0x8dd>
    20ac:	48 b8 00 00 00 00 00 	movabs rax,0x0
    20b3:	00 00 00 
    20b6:	ff d0                	call   rax
    20b8:	89 85 44 fc ff ff    	mov    DWORD PTR [rbp-0x3bc],eax
    20be:	48 b8 00 00 00 00 00 	movabs rax,0x0
    20c5:	00 00 00 
    20c8:	ff d0                	call   rax
    20ca:	8b 8d 44 fc ff ff    	mov    ecx,DWORD PTR [rbp-0x3bc]
    20d0:	41 89 c0             	mov    r8d,eax
    20d3:	48 bf 00 00 00 00 00 	movabs rdi,0x0
    20da:	00 00 00 
    20dd:	48 b8 00 00 00 00 00 	movabs rax,0x0
    20e4:	00 00 00 
    20e7:	31 d2                	xor    edx,edx
    20e9:	89 d6                	mov    esi,edx
    20eb:	ff d0                	call   rax
    20ed:	e9 00 00 00 00       	jmp    20f2 <main+0x8e2>
    20f2:	48 b8 00 00 00 00 00 	movabs rax,0x0
    20f9:	00 00 00 
    20fc:	8a 00                	mov    al,BYTE PTR [rax]
    20fe:	a8 01                	test   al,0x1
    2100:	0f 85 3f 00 00 00    	jne    2145 <main+0x935>
    2106:	48 b8 00 00 00 00 00 	movabs rax,0x0
    210d:	00 00 00 
    2110:	8b 30                	mov    esi,DWORD PTR [rax]
    2112:	83 c6 fe             	add    esi,0xfffffffe
    2115:	48 b8 00 00 00 00 00 	movabs rax,0x0
    211c:	00 00 00 
    211f:	8b 10                	mov    edx,DWORD PTR [rax]
    2121:	83 ea 02             	sub    edx,0x2
    2124:	48 bf 00 00 00 00 00 	movabs rdi,0x0
    212b:	00 00 00 
    212e:	48 b8 00 00 00 00 00 	movabs rax,0x0
    2135:	00 00 00 
    2138:	b9 14 00 00 00       	mov    ecx,0x14
    213d:	41 b8 18 00 00 00    	mov    r8d,0x18
    2143:	ff d0                	call   rax
    2145:	48 b8 00 00 00 00 00 	movabs rax,0x0
    214c:	00 00 00 
    214f:	8b 38                	mov    edi,DWORD PTR [rax]
    2151:	48 b8 00 00 00 00 00 	movabs rax,0x0
    2158:	00 00 00 
    215b:	8b 30                	mov    esi,DWORD PTR [rax]
    215d:	48 b8 00 00 00 00 00 	movabs rax,0x0
    2164:	00 00 00 
    2167:	8b 10                	mov    edx,DWORD PTR [rax]
    2169:	48 b8 00 00 00 00 00 	movabs rax,0x0
    2170:	00 00 00 
    2173:	8b 08                	mov    ecx,DWORD PTR [rax]
    2175:	48 b8 00 00 00 00 00 	movabs rax,0x0
    217c:	00 00 00 
    217f:	ff d0                	call   rax
    2181:	48 b8 00 00 00 00 00 	movabs rax,0x0
    2188:	00 00 00 
    218b:	48 89 85 28 fc ff ff 	mov    QWORD PTR [rbp-0x3d8],rax
    2192:	8b 30                	mov    esi,DWORD PTR [rax]
    2194:	48 b8 00 00 00 00 00 	movabs rax,0x0
    219b:	00 00 00 
    219e:	8b 10                	mov    edx,DWORD PTR [rax]
    21a0:	48 b8 00 00 00 00 00 	movabs rax,0x0
    21a7:	00 00 00 
    21aa:	8b 08                	mov    ecx,DWORD PTR [rax]
    21ac:	48 bf 00 00 00 00 00 	movabs rdi,0x0
    21b3:	00 00 00 
    21b6:	48 89 bd 30 fc ff ff 	mov    QWORD PTR [rbp-0x3d0],rdi
    21bd:	48 b8 00 00 00 00 00 	movabs rax,0x0
    21c4:	00 00 00 
    21c7:	ff d0                	call   rax
    21c9:	48 8b 85 28 fc ff ff 	mov    rax,QWORD PTR [rbp-0x3d8]
    21d0:	48 8b bd 30 fc ff ff 	mov    rdi,QWORD PTR [rbp-0x3d0]
    21d7:	8b 30                	mov    esi,DWORD PTR [rax]
    21d9:	48 b8 00 00 00 00 00 	movabs rax,0x0
    21e0:	00 00 00 
    21e3:	8b 08                	mov    ecx,DWORD PTR [rax]
    21e5:	48 b8 00 00 00 00 00 	movabs rax,0x0
    21ec:	00 00 00 
    21ef:	48 89 85 38 fc ff ff 	mov    QWORD PTR [rbp-0x3c8],rax
    21f6:	44 0f b6 00          	movzx  r8d,BYTE PTR [rax]
    21fa:	41 83 e0 01          	and    r8d,0x1
    21fe:	48 ba 00 00 00 00 00 	movabs rdx,0x0
    2205:	00 00 00 
    2208:	49 b9 00 00 00 00 00 	movabs r9,0x0
    220f:	00 00 00 
    2212:	48 b8 00 00 00 00 00 	movabs rax,0x0
    2219:	00 00 00 
    221c:	ff d0                	call   rax
    221e:	48 b8 00 00 00 00 00 	movabs rax,0x0
    2225:	00 00 00 
    2228:	ff d0                	call   rax
    222a:	89 85 d0 fe ff ff    	mov    DWORD PTR [rbp-0x130],eax
    2230:	48 b8 00 00 00 00 00 	movabs rax,0x0
    2237:	00 00 00 
    223a:	ff d0                	call   rax
    223c:	89 85 cc fe ff ff    	mov    DWORD PTR [rbp-0x134],eax
    2242:	8b 85 cc fe ff ff    	mov    eax,DWORD PTR [rbp-0x134]
    2248:	83 c0 e4             	add    eax,0xffffffe4
    224b:	89 85 c8 fe ff ff    	mov    DWORD PTR [rbp-0x138],eax
    2251:	8b 85 d0 fe ff ff    	mov    eax,DWORD PTR [rbp-0x130]
    2257:	05 1a ff ff ff       	add    eax,0xffffff1a
    225c:	89 85 c4 fe ff ff    	mov    DWORD PTR [rbp-0x13c],eax
    2262:	8b bd c4 fe ff ff    	mov    edi,DWORD PTR [rbp-0x13c]
    2268:	8b b5 c8 fe ff ff    	mov    esi,DWORD PTR [rbp-0x138]
    226e:	48 b8 00 00 00 00 00 	movabs rax,0x0
    2275:	00 00 00 
    2278:	48 63 08             	movsxd rcx,DWORD PTR [rax]
    227b:	48 b8 00 00 00 00 00 	movabs rax,0x0
    2282:	00 00 00 
    2285:	48 8b 14 c8          	mov    rdx,QWORD PTR [rax+rcx*8]
    2289:	48 b8 00 00 00 00 00 	movabs rax,0x0
    2290:	00 00 00 
    2293:	b9 cc cc cc ff       	mov    ecx,0xffcccccc
    2298:	41 b8 01 00 00 00    	mov    r8d,0x1
    229e:	ff d0                	call   rax
    22a0:	48 b8 00 00 00 00 00 	movabs rax,0x0
    22a7:	00 00 00 
    22aa:	ff d0                	call   rax
    22ac:	48 8b 85 38 fc ff ff 	mov    rax,QWORD PTR [rbp-0x3c8]
    22b3:	8a 00                	mov    al,BYTE PTR [rax]
    22b5:	a8 01                	test   al,0x1
    22b7:	0f 85 60 10 00 00    	jne    331d <main+0x1b0d>
    22bd:	c7 85 c0 fe ff ff 00 	mov    DWORD PTR [rbp-0x140],0x0
    22c4:	00 00 00 
    22c7:	8b 85 c0 fe ff ff    	mov    eax,DWORD PTR [rbp-0x140]
    22cd:	48 b9 00 00 00 00 00 	movabs rcx,0x0
    22d4:	00 00 00 
    22d7:	8b 09                	mov    ecx,DWORD PTR [rcx]
    22d9:	39 c8                	cmp    eax,ecx
    22db:	0f 8d 37 10 00 00    	jge    3318 <main+0x1b08>
    22e1:	48 63 85 c0 fe ff ff 	movsxd rax,DWORD PTR [rbp-0x140]
    22e8:	48 6b c0 38          	imul   rax,rax,0x38
    22ec:	48 b9 00 00 00 00 00 	movabs rcx,0x0
    22f3:	00 00 00 
    22f6:	48 01 c8             	add    rax,rcx
    22f9:	48 89 85 b8 fe ff ff 	mov    QWORD PTR [rbp-0x148],rax
    2300:	48 8b 85 b8 fe ff ff 	mov    rax,QWORD PTR [rbp-0x148]
    2307:	f6 40 21 01          	test   BYTE PTR [rax+0x21],0x1
    230b:	0f 84 05 00 00 00    	je     2316 <main+0xb06>
    2311:	e9 ee 0f 00 00       	jmp    3304 <main+0x1af4>
    2316:	48 8b 85 b8 fe ff ff 	mov    rax,QWORD PTR [rbp-0x148]
    231d:	48 83 78 18 00       	cmp    QWORD PTR [rax+0x18],0x0
    2322:	0f 85 05 00 00 00    	jne    232d <main+0xb1d>
    2328:	e9 d7 0f 00 00       	jmp    3304 <main+0x1af4>
    232d:	48 8b 85 b8 fe ff ff 	mov    rax,QWORD PTR [rbp-0x148]
    2334:	48 8b 40 18          	mov    rax,QWORD PTR [rax+0x18]
    2338:	0f be 00             	movsx  eax,BYTE PTR [rax]
    233b:	83 f8 53             	cmp    eax,0x53
    233e:	0f 85 b3 0e 00 00    	jne    31f7 <main+0x19e7>
    2344:	c7 85 b4 fe ff ff 10 	mov    DWORD PTR [rbp-0x14c],0x10
    234b:	00 00 00 
    234e:	c7 85 b0 fe ff ff 1a 	mov    DWORD PTR [rbp-0x150],0x1a
    2355:	00 00 00 
    2358:	48 8b 85 b8 fe ff ff 	mov    rax,QWORD PTR [rbp-0x148]
    235f:	8b 00                	mov    eax,DWORD PTR [rax]
    2361:	03 85 b4 fe ff ff    	add    eax,DWORD PTR [rbp-0x14c]
    2367:	89 85 ac fe ff ff    	mov    DWORD PTR [rbp-0x154],eax
    236d:	48 8b 85 b8 fe ff ff 	mov    rax,QWORD PTR [rbp-0x148]
    2374:	8b 40 04             	mov    eax,DWORD PTR [rax+0x4]
    2377:	03 85 b0 fe ff ff    	add    eax,DWORD PTR [rbp-0x150]
    237d:	03 85 b4 fe ff ff    	add    eax,DWORD PTR [rbp-0x14c]
    2383:	89 85 a8 fe ff ff    	mov    DWORD PTR [rbp-0x158],eax
    2389:	c7 85 94 fe ff ff 00 	mov    DWORD PTR [rbp-0x16c],0x0
    2390:	00 00 00 
    2393:	83 bd 94 fe ff ff 0d 	cmp    DWORD PTR [rbp-0x16c],0xd
    239a:	0f 8d 38 00 00 00    	jge    23d8 <main+0xbc8>
    23a0:	48 63 85 94 fe ff ff 	movsxd rax,DWORD PTR [rbp-0x16c]
    23a7:	48 b9 00 00 00 00 00 	movabs rcx,0x0
    23ae:	00 00 00 
    23b1:	48 01 c8             	add    rax,rcx
    23b4:	8a 08                	mov    cl,BYTE PTR [rax]
    23b6:	48 63 85 94 fe ff ff 	movsxd rax,DWORD PTR [rbp-0x16c]
    23bd:	88 8c 05 9b fe ff ff 	mov    BYTE PTR [rbp+rax*1-0x165],cl
    23c4:	8b 85 94 fe ff ff    	mov    eax,DWORD PTR [rbp-0x16c]
    23ca:	83 c0 01             	add    eax,0x1
    23cd:	89 85 94 fe ff ff    	mov    DWORD PTR [rbp-0x16c],eax
    23d3:	e9 bb ff ff ff       	jmp    2393 <main+0xb83>
    23d8:	c6 85 a7 fe ff ff 00 	mov    BYTE PTR [rbp-0x159],0x0
    23df:	48 b8 00 00 00 00 00 	movabs rax,0x0
    23e6:	00 00 00 
    23e9:	48 8d bd 9b fe ff ff 	lea    rdi,[rbp-0x165]
    23f0:	ff d0                	call   rax
    23f2:	48 b8 00 00 00 00 00 	movabs rax,0x0
    23f9:	00 00 00 
    23fc:	48 89 85 48 fe ff ff 	mov    QWORD PTR [rbp-0x1b8],rax
    2403:	8b bd ac fe ff ff    	mov    edi,DWORD PTR [rbp-0x154]
    2409:	8b b5 a8 fe ff ff    	mov    esi,DWORD PTR [rbp-0x158]
    240f:	48 8b 95 48 fe ff ff 	mov    rdx,QWORD PTR [rbp-0x1b8]
    2416:	48 b8 00 00 00 00 00 	movabs rax,0x0
    241d:	00 00 00 
    2420:	b9 ea ea ea ff       	mov    ecx,0xffeaeaea
    2425:	41 b8 01 00 00 00    	mov    r8d,0x1
    242b:	ff d0                	call   rax
    242d:	8b 85 a8 fe ff ff    	mov    eax,DWORD PTR [rbp-0x158]
    2433:	83 c0 0e             	add    eax,0xe
    2436:	89 85 a8 fe ff ff    	mov    DWORD PTR [rbp-0x158],eax
    243c:	c7 85 44 fe ff ff 00 	mov    DWORD PTR [rbp-0x1bc],0x0
    2443:	00 00 00 
    2446:	48 b8 00 00 00 00 00 	movabs rax,0x0
    244d:	00 00 00 
    2450:	48 89 85 38 fe ff ff 	mov    QWORD PTR [rbp-0x1c8],rax
    2457:	48 8b 8d 38 fe ff ff 	mov    rcx,QWORD PTR [rbp-0x1c8]
    245e:	31 c0                	xor    eax,eax
    2460:	80 39 00             	cmp    BYTE PTR [rcx],0x0
    2463:	88 85 27 fc ff ff    	mov    BYTE PTR [rbp-0x3d9],al
    2469:	0f 84 10 00 00 00    	je     247f <main+0xc6f>
    246f:	83 bd 44 fe ff ff 3f 	cmp    DWORD PTR [rbp-0x1bc],0x3f
    2476:	0f 9c c0             	setl   al
    2479:	88 85 27 fc ff ff    	mov    BYTE PTR [rbp-0x3d9],al
    247f:	8a 85 27 fc ff ff    	mov    al,BYTE PTR [rbp-0x3d9]
    2485:	a8 01                	test   al,0x1
    2487:	0f 85 05 00 00 00    	jne    2492 <main+0xc82>
    248d:	e9 36 00 00 00       	jmp    24c8 <main+0xcb8>
    2492:	48 8b 85 38 fe ff ff 	mov    rax,QWORD PTR [rbp-0x1c8]
    2499:	48 89 c1             	mov    rcx,rax
    249c:	48 83 c1 01          	add    rcx,0x1
    24a0:	48 89 8d 38 fe ff ff 	mov    QWORD PTR [rbp-0x1c8],rcx
    24a7:	8a 08                	mov    cl,BYTE PTR [rax]
    24a9:	8b 85 44 fe ff ff    	mov    eax,DWORD PTR [rbp-0x1bc]
    24af:	89 c2                	mov    edx,eax
    24b1:	83 c2 01             	add    edx,0x1
    24b4:	89 95 44 fe ff ff    	mov    DWORD PTR [rbp-0x1bc],edx
    24ba:	48 98                	cdqe
    24bc:	88 8c 05 50 fe ff ff 	mov    BYTE PTR [rbp+rax*1-0x1b0],cl
    24c3:	e9 8f ff ff ff       	jmp    2457 <main+0xc47>
    24c8:	c7 85 34 fe ff ff 00 	mov    DWORD PTR [rbp-0x1cc],0x0
    24cf:	00 00 00 
    24d2:	48 63 8d 34 fe ff ff 	movsxd rcx,DWORD PTR [rbp-0x1cc]
    24d9:	31 c0                	xor    eax,eax
    24db:	80 bc 0d 9b fe ff ff 	cmp    BYTE PTR [rbp+rcx*1-0x165],0x0
    24e2:	00 
    24e3:	88 85 26 fc ff ff    	mov    BYTE PTR [rbp-0x3da],al
    24e9:	0f 84 10 00 00 00    	je     24ff <main+0xcef>
    24ef:	83 bd 44 fe ff ff 3f 	cmp    DWORD PTR [rbp-0x1bc],0x3f
    24f6:	0f 9c c0             	setl   al
    24f9:	88 85 26 fc ff ff    	mov    BYTE PTR [rbp-0x3da],al
    24ff:	8a 85 26 fc ff ff    	mov    al,BYTE PTR [rbp-0x3da]
    2505:	a8 01                	test   al,0x1
    2507:	0f 85 05 00 00 00    	jne    2512 <main+0xd02>
    250d:	e9 3c 00 00 00       	jmp    254e <main+0xd3e>
    2512:	48 63 85 34 fe ff ff 	movsxd rax,DWORD PTR [rbp-0x1cc]
    2519:	8a 8c 05 9b fe ff ff 	mov    cl,BYTE PTR [rbp+rax*1-0x165]
    2520:	8b 85 44 fe ff ff    	mov    eax,DWORD PTR [rbp-0x1bc]
    2526:	89 c2                	mov    edx,eax
    2528:	83 c2 01             	add    edx,0x1
    252b:	89 95 44 fe ff ff    	mov    DWORD PTR [rbp-0x1bc],edx
    2531:	48 98                	cdqe
    2533:	88 8c 05 50 fe ff ff 	mov    BYTE PTR [rbp+rax*1-0x1b0],cl
    253a:	8b 85 34 fe ff ff    	mov    eax,DWORD PTR [rbp-0x1cc]
    2540:	83 c0 01             	add    eax,0x1
    2543:	89 85 34 fe ff ff    	mov    DWORD PTR [rbp-0x1cc],eax
    2549:	e9 84 ff ff ff       	jmp    24d2 <main+0xcc2>
    254e:	48 63 85 44 fe ff ff 	movsxd rax,DWORD PTR [rbp-0x1bc]
    2555:	c6 84 05 50 fe ff ff 	mov    BYTE PTR [rbp+rax*1-0x1b0],0x0
    255c:	00 
    255d:	8b bd ac fe ff ff    	mov    edi,DWORD PTR [rbp-0x154]
    2563:	8b b5 a8 fe ff ff    	mov    esi,DWORD PTR [rbp-0x158]
    2569:	48 b8 00 00 00 00 00 	movabs rax,0x0
    2570:	00 00 00 
    2573:	48 8d 95 50 fe ff ff 	lea    rdx,[rbp-0x1b0]
    257a:	b9 cc cc cc ff       	mov    ecx,0xffcccccc
    257f:	41 b8 01 00 00 00    	mov    r8d,0x1
    2585:	ff d0                	call   rax
    2587:	8b 85 a8 fe ff ff    	mov    eax,DWORD PTR [rbp-0x158]
    258d:	83 c0 0c             	add    eax,0xc
    2590:	89 85 a8 fe ff ff    	mov    DWORD PTR [rbp-0x158],eax
    2596:	48 b8 00 00 00 00 00 	movabs rax,0x0
    259d:	00 00 00 
    25a0:	48 8b 00             	mov    rax,QWORD PTR [rax]
    25a3:	48 c1 e8 14          	shr    rax,0x14
    25a7:	48 89 85 28 fe ff ff 	mov    QWORD PTR [rbp-0x1d8],rax
    25ae:	48 b8 00 00 00 00 00 	movabs rax,0x0
    25b5:	00 00 00 
    25b8:	48 8b 00             	mov    rax,QWORD PTR [rax]
    25bb:	48 c1 e8 14          	shr    rax,0x14
    25bf:	48 89 85 20 fe ff ff 	mov    QWORD PTR [rbp-0x1e0],rax
    25c6:	c7 85 d8 fd ff ff 00 	mov    DWORD PTR [rbp-0x228],0x0
    25cd:	00 00 00 
    25d0:	48 b8 00 00 00 00 00 	movabs rax,0x0
    25d7:	00 00 00 
    25da:	48 89 85 d0 fd ff ff 	mov    QWORD PTR [rbp-0x230],rax
    25e1:	48 8b 8d d0 fd ff ff 	mov    rcx,QWORD PTR [rbp-0x230]
    25e8:	31 c0                	xor    eax,eax
    25ea:	80 39 00             	cmp    BYTE PTR [rcx],0x0
    25ed:	88 85 25 fc ff ff    	mov    BYTE PTR [rbp-0x3db],al
    25f3:	0f 84 10 00 00 00    	je     2609 <main+0xdf9>
    25f9:	83 bd d8 fd ff ff 3f 	cmp    DWORD PTR [rbp-0x228],0x3f
    2600:	0f 9c c0             	setl   al
    2603:	88 85 25 fc ff ff    	mov    BYTE PTR [rbp-0x3db],al
    2609:	8a 85 25 fc ff ff    	mov    al,BYTE PTR [rbp-0x3db]
    260f:	a8 01                	test   al,0x1
    2611:	0f 85 05 00 00 00    	jne    261c <main+0xe0c>
    2617:	e9 36 00 00 00       	jmp    2652 <main+0xe42>
    261c:	48 8b 85 d0 fd ff ff 	mov    rax,QWORD PTR [rbp-0x230]
    2623:	48 89 c1             	mov    rcx,rax
    2626:	48 83 c1 01          	add    rcx,0x1
    262a:	48 89 8d d0 fd ff ff 	mov    QWORD PTR [rbp-0x230],rcx
    2631:	8a 08                	mov    cl,BYTE PTR [rax]
    2633:	8b 85 d8 fd ff ff    	mov    eax,DWORD PTR [rbp-0x228]
    2639:	89 c2                	mov    edx,eax
    263b:	83 c2 01             	add    edx,0x1
    263e:	89 95 d8 fd ff ff    	mov    DWORD PTR [rbp-0x228],edx
    2644:	48 98                	cdqe
    2646:	88 8c 05 e0 fd ff ff 	mov    BYTE PTR [rbp+rax*1-0x220],cl
    264d:	e9 8f ff ff ff       	jmp    25e1 <main+0xdd1>
    2652:	48 8b 8d 28 fe ff ff 	mov    rcx,QWORD PTR [rbp-0x1d8]
    2659:	48 b8 00 00 00 00 00 	movabs rax,0x0
    2660:	00 00 00 
    2663:	48 8d bd df fd ff ff 	lea    rdi,[rbp-0x221]
    266a:	48 8d b5 e0 fd ff ff 	lea    rsi,[rbp-0x220]
    2671:	48 8d 95 d8 fd ff ff 	lea    rdx,[rbp-0x228]
    2678:	ff d0                	call   rax
    267a:	48 b8 00 00 00 00 00 	movabs rax,0x0
    2681:	00 00 00 
    2684:	48 89 85 c8 fd ff ff 	mov    QWORD PTR [rbp-0x238],rax
    268b:	48 8b 8d c8 fd ff ff 	mov    rcx,QWORD PTR [rbp-0x238]
    2692:	31 c0                	xor    eax,eax
    2694:	80 39 00             	cmp    BYTE PTR [rcx],0x0
    2697:	88 85 24 fc ff ff    	mov    BYTE PTR [rbp-0x3dc],al
    269d:	0f 84 10 00 00 00    	je     26b3 <main+0xea3>
    26a3:	83 bd d8 fd ff ff 3f 	cmp    DWORD PTR [rbp-0x228],0x3f
    26aa:	0f 9c c0             	setl   al
    26ad:	88 85 24 fc ff ff    	mov    BYTE PTR [rbp-0x3dc],al
    26b3:	8a 85 24 fc ff ff    	mov    al,BYTE PTR [rbp-0x3dc]
    26b9:	a8 01                	test   al,0x1
    26bb:	0f 85 05 00 00 00    	jne    26c6 <main+0xeb6>
    26c1:	e9 36 00 00 00       	jmp    26fc <main+0xeec>
    26c6:	48 8b 85 c8 fd ff ff 	mov    rax,QWORD PTR [rbp-0x238]
    26cd:	48 89 c1             	mov    rcx,rax
    26d0:	48 83 c1 01          	add    rcx,0x1
    26d4:	48 89 8d c8 fd ff ff 	mov    QWORD PTR [rbp-0x238],rcx
    26db:	8a 08                	mov    cl,BYTE PTR [rax]
    26dd:	8b 85 d8 fd ff ff    	mov    eax,DWORD PTR [rbp-0x228]
    26e3:	89 c2                	mov    edx,eax
    26e5:	83 c2 01             	add    edx,0x1
    26e8:	89 95 d8 fd ff ff    	mov    DWORD PTR [rbp-0x228],edx
    26ee:	48 98                	cdqe
    26f0:	88 8c 05 e0 fd ff ff 	mov    BYTE PTR [rbp+rax*1-0x220],cl
    26f7:	e9 8f ff ff ff       	jmp    268b <main+0xe7b>
    26fc:	48 8b 8d 20 fe ff ff 	mov    rcx,QWORD PTR [rbp-0x1e0]
    2703:	48 b8 00 00 00 00 00 	movabs rax,0x0
    270a:	00 00 00 
    270d:	48 8d bd df fd ff ff 	lea    rdi,[rbp-0x221]
    2714:	48 8d b5 e0 fd ff ff 	lea    rsi,[rbp-0x220]
    271b:	48 8d 95 d8 fd ff ff 	lea    rdx,[rbp-0x228]
    2722:	ff d0                	call   rax
    2724:	48 b8 00 00 00 00 00 	movabs rax,0x0
    272b:	00 00 00 
    272e:	48 89 85 c0 fd ff ff 	mov    QWORD PTR [rbp-0x240],rax
    2735:	48 8b 8d c0 fd ff ff 	mov    rcx,QWORD PTR [rbp-0x240]
    273c:	31 c0                	xor    eax,eax
    273e:	80 39 00             	cmp    BYTE PTR [rcx],0x0
    2741:	88 85 23 fc ff ff    	mov    BYTE PTR [rbp-0x3dd],al
    2747:	0f 84 10 00 00 00    	je     275d <main+0xf4d>
    274d:	83 bd d8 fd ff ff 3f 	cmp    DWORD PTR [rbp-0x228],0x3f
    2754:	0f 9c c0             	setl   al
    2757:	88 85 23 fc ff ff    	mov    BYTE PTR [rbp-0x3dd],al
    275d:	8a 85 23 fc ff ff    	mov    al,BYTE PTR [rbp-0x3dd]
    2763:	a8 01                	test   al,0x1
    2765:	0f 85 05 00 00 00    	jne    2770 <main+0xf60>
    276b:	e9 36 00 00 00       	jmp    27a6 <main+0xf96>
    2770:	48 8b 85 c0 fd ff ff 	mov    rax,QWORD PTR [rbp-0x240]
    2777:	48 89 c1             	mov    rcx,rax
    277a:	48 83 c1 01          	add    rcx,0x1
    277e:	48 89 8d c0 fd ff ff 	mov    QWORD PTR [rbp-0x240],rcx
    2785:	8a 08                	mov    cl,BYTE PTR [rax]
    2787:	8b 85 d8 fd ff ff    	mov    eax,DWORD PTR [rbp-0x228]
    278d:	89 c2                	mov    edx,eax
    278f:	83 c2 01             	add    edx,0x1
    2792:	89 95 d8 fd ff ff    	mov    DWORD PTR [rbp-0x228],edx
    2798:	48 98                	cdqe
    279a:	88 8c 05 e0 fd ff ff 	mov    BYTE PTR [rbp+rax*1-0x220],cl
    27a1:	e9 8f ff ff ff       	jmp    2735 <main+0xf25>
    27a6:	48 63 85 d8 fd ff ff 	movsxd rax,DWORD PTR [rbp-0x228]
    27ad:	c6 84 05 e0 fd ff ff 	mov    BYTE PTR [rbp+rax*1-0x220],0x0
    27b4:	00 
    27b5:	48 b8 00 00 00 00 00 	movabs rax,0x0
    27bc:	00 00 00 
    27bf:	48 8d bd e0 fd ff ff 	lea    rdi,[rbp-0x220]
    27c6:	48 89 bd 18 fc ff ff 	mov    QWORD PTR [rbp-0x3e8],rdi
    27cd:	ff d0                	call   rax
    27cf:	48 8b 95 18 fc ff ff 	mov    rdx,QWORD PTR [rbp-0x3e8]
    27d6:	8b bd ac fe ff ff    	mov    edi,DWORD PTR [rbp-0x154]
    27dc:	8b b5 a8 fe ff ff    	mov    esi,DWORD PTR [rbp-0x158]
    27e2:	48 b8 00 00 00 00 00 	movabs rax,0x0
    27e9:	00 00 00 
    27ec:	b9 cc cc cc ff       	mov    ecx,0xffcccccc
    27f1:	41 b8 01 00 00 00    	mov    r8d,0x1
    27f7:	ff d0                	call   rax
    27f9:	8b 85 a8 fe ff ff    	mov    eax,DWORD PTR [rbp-0x158]
    27ff:	83 c0 0c             	add    eax,0xc
    2802:	89 85 a8 fe ff ff    	mov    DWORD PTR [rbp-0x158],eax
    2808:	c7 85 d8 fd ff ff 00 	mov    DWORD PTR [rbp-0x228],0x0
    280f:	00 00 00 
    2812:	48 b8 00 00 00 00 00 	movabs rax,0x0
    2819:	00 00 00 
    281c:	48 89 85 78 fd ff ff 	mov    QWORD PTR [rbp-0x288],rax
    2823:	48 8b 8d 78 fd ff ff 	mov    rcx,QWORD PTR [rbp-0x288]
    282a:	31 c0                	xor    eax,eax
    282c:	80 39 00             	cmp    BYTE PTR [rcx],0x0
    282f:	88 85 17 fc ff ff    	mov    BYTE PTR [rbp-0x3e9],al
    2835:	0f 84 10 00 00 00    	je     284b <main+0x103b>
    283b:	83 bd d8 fd ff ff 3f 	cmp    DWORD PTR [rbp-0x228],0x3f
    2842:	0f 9c c0             	setl   al
    2845:	88 85 17 fc ff ff    	mov    BYTE PTR [rbp-0x3e9],al
    284b:	8a 85 17 fc ff ff    	mov    al,BYTE PTR [rbp-0x3e9]
    2851:	a8 01                	test   al,0x1
    2853:	0f 85 05 00 00 00    	jne    285e <main+0x104e>
    2859:	e9 36 00 00 00       	jmp    2894 <main+0x1084>
    285e:	48 8b 85 78 fd ff ff 	mov    rax,QWORD PTR [rbp-0x288]
    2865:	48 89 c1             	mov    rcx,rax
    2868:	48 83 c1 01          	add    rcx,0x1
    286c:	48 89 8d 78 fd ff ff 	mov    QWORD PTR [rbp-0x288],rcx
    2873:	8a 08                	mov    cl,BYTE PTR [rax]
    2875:	8b 85 d8 fd ff ff    	mov    eax,DWORD PTR [rbp-0x228]
    287b:	89 c2                	mov    edx,eax
    287d:	83 c2 01             	add    edx,0x1
    2880:	89 95 d8 fd ff ff    	mov    DWORD PTR [rbp-0x228],edx
    2886:	48 98                	cdqe
    2888:	88 8c 05 80 fd ff ff 	mov    BYTE PTR [rbp+rax*1-0x280],cl
    288f:	e9 8f ff ff ff       	jmp    2823 <main+0x1013>
    2894:	48 b8 00 00 00 00 00 	movabs rax,0x0
    289b:	00 00 00 
    289e:	8b 00                	mov    eax,DWORD PTR [rax]
    28a0:	89 c1                	mov    ecx,eax
    28a2:	48 b8 00 00 00 00 00 	movabs rax,0x0
    28a9:	00 00 00 
    28ac:	48 89 85 08 fc ff ff 	mov    QWORD PTR [rbp-0x3f8],rax
    28b3:	48 8d bd df fd ff ff 	lea    rdi,[rbp-0x221]
    28ba:	48 89 bd f0 fb ff ff 	mov    QWORD PTR [rbp-0x410],rdi
    28c1:	48 8d b5 80 fd ff ff 	lea    rsi,[rbp-0x280]
    28c8:	48 89 b5 f8 fb ff ff 	mov    QWORD PTR [rbp-0x408],rsi
    28cf:	48 8d 95 d8 fd ff ff 	lea    rdx,[rbp-0x228]
    28d6:	48 89 95 00 fc ff ff 	mov    QWORD PTR [rbp-0x400],rdx
    28dd:	ff d0                	call   rax
    28df:	48 8b bd f0 fb ff ff 	mov    rdi,QWORD PTR [rbp-0x410]
    28e6:	48 8b b5 f8 fb ff ff 	mov    rsi,QWORD PTR [rbp-0x408]
    28ed:	48 8b 95 00 fc ff ff 	mov    rdx,QWORD PTR [rbp-0x400]
    28f4:	48 8b 85 08 fc ff ff 	mov    rax,QWORD PTR [rbp-0x3f8]
    28fb:	48 63 8d d8 fd ff ff 	movsxd rcx,DWORD PTR [rbp-0x228]
    2902:	41 89 c8             	mov    r8d,ecx
    2905:	41 ff c0             	inc    r8d
    2908:	44 89 85 d8 fd ff ff 	mov    DWORD PTR [rbp-0x228],r8d
    290f:	c6 84 0d 80 fd ff ff 	mov    BYTE PTR [rbp+rcx*1-0x280],0x58
    2916:	58 
    2917:	48 b9 00 00 00 00 00 	movabs rcx,0x0
    291e:	00 00 00 
    2921:	8b 09                	mov    ecx,DWORD PTR [rcx]
    2923:	ff d0                	call   rax
    2925:	48 b8 00 00 00 00 00 	movabs rax,0x0
    292c:	00 00 00 
    292f:	48 89 85 70 fd ff ff 	mov    QWORD PTR [rbp-0x290],rax
    2936:	48 8b 8d 70 fd ff ff 	mov    rcx,QWORD PTR [rbp-0x290]
    293d:	31 c0                	xor    eax,eax
    293f:	80 39 00             	cmp    BYTE PTR [rcx],0x0
    2942:	88 85 ef fb ff ff    	mov    BYTE PTR [rbp-0x411],al
    2948:	0f 84 10 00 00 00    	je     295e <main+0x114e>
    294e:	83 bd d8 fd ff ff 3f 	cmp    DWORD PTR [rbp-0x228],0x3f
    2955:	0f 9c c0             	setl   al
    2958:	88 85 ef fb ff ff    	mov    BYTE PTR [rbp-0x411],al
    295e:	8a 85 ef fb ff ff    	mov    al,BYTE PTR [rbp-0x411]
    2964:	a8 01                	test   al,0x1
    2966:	0f 85 05 00 00 00    	jne    2971 <main+0x1161>
    296c:	e9 36 00 00 00       	jmp    29a7 <main+0x1197>
    2971:	48 8b 85 70 fd ff ff 	mov    rax,QWORD PTR [rbp-0x290]
    2978:	48 89 c1             	mov    rcx,rax
    297b:	48 83 c1 01          	add    rcx,0x1
    297f:	48 89 8d 70 fd ff ff 	mov    QWORD PTR [rbp-0x290],rcx
    2986:	8a 08                	mov    cl,BYTE PTR [rax]
    2988:	8b 85 d8 fd ff ff    	mov    eax,DWORD PTR [rbp-0x228]
    298e:	89 c2                	mov    edx,eax
    2990:	83 c2 01             	add    edx,0x1
    2993:	89 95 d8 fd ff ff    	mov    DWORD PTR [rbp-0x228],edx
    2999:	48 98                	cdqe
    299b:	88 8c 05 80 fd ff ff 	mov    BYTE PTR [rbp+rax*1-0x280],cl
    29a2:	e9 8f ff ff ff       	jmp    2936 <main+0x1126>
    29a7:	48 b8 00 00 00 00 00 	movabs rax,0x0
    29ae:	00 00 00 
    29b1:	8b 00                	mov    eax,DWORD PTR [rax]
    29b3:	89 c1                	mov    ecx,eax
    29b5:	48 b8 00 00 00 00 00 	movabs rax,0x0
    29bc:	00 00 00 
    29bf:	48 8d bd df fd ff ff 	lea    rdi,[rbp-0x221]
    29c6:	48 8d b5 80 fd ff ff 	lea    rsi,[rbp-0x280]
    29cd:	48 89 b5 e0 fb ff ff 	mov    QWORD PTR [rbp-0x420],rsi
    29d4:	48 8d 95 d8 fd ff ff 	lea    rdx,[rbp-0x228]
    29db:	ff d0                	call   rax
    29dd:	48 8b bd e0 fb ff ff 	mov    rdi,QWORD PTR [rbp-0x420]
    29e4:	48 63 85 d8 fd ff ff 	movsxd rax,DWORD PTR [rbp-0x228]
    29eb:	c6 84 05 80 fd ff ff 	mov    BYTE PTR [rbp+rax*1-0x280],0x0
    29f2:	00 
    29f3:	48 b8 00 00 00 00 00 	movabs rax,0x0
    29fa:	00 00 00 
    29fd:	ff d0                	call   rax
    29ff:	48 8b 95 e0 fb ff ff 	mov    rdx,QWORD PTR [rbp-0x420]
    2a06:	8b bd ac fe ff ff    	mov    edi,DWORD PTR [rbp-0x154]
    2a0c:	8b b5 a8 fe ff ff    	mov    esi,DWORD PTR [rbp-0x158]
    2a12:	48 b8 00 00 00 00 00 	movabs rax,0x0
    2a19:	00 00 00 
    2a1c:	b9 cc cc cc ff       	mov    ecx,0xffcccccc
    2a21:	41 b8 01 00 00 00    	mov    r8d,0x1
    2a27:	ff d0                	call   rax
    2a29:	8b 85 a8 fe ff ff    	mov    eax,DWORD PTR [rbp-0x158]
    2a2f:	83 c0 0c             	add    eax,0xc
    2a32:	89 85 a8 fe ff ff    	mov    DWORD PTR [rbp-0x158],eax
    2a38:	c7 85 d8 fd ff ff 00 	mov    DWORD PTR [rbp-0x228],0x0
    2a3f:	00 00 00 
    2a42:	48 b8 00 00 00 00 00 	movabs rax,0x0
    2a49:	00 00 00 
    2a4c:	48 89 85 28 fd ff ff 	mov    QWORD PTR [rbp-0x2d8],rax
    2a53:	48 8b 8d 28 fd ff ff 	mov    rcx,QWORD PTR [rbp-0x2d8]
    2a5a:	31 c0                	xor    eax,eax
    2a5c:	80 39 00             	cmp    BYTE PTR [rcx],0x0
    2a5f:	88 85 df fb ff ff    	mov    BYTE PTR [rbp-0x421],al
    2a65:	0f 84 10 00 00 00    	je     2a7b <main+0x126b>
    2a6b:	83 bd d8 fd ff ff 3f 	cmp    DWORD PTR [rbp-0x228],0x3f
    2a72:	0f 9c c0             	setl   al
    2a75:	88 85 df fb ff ff    	mov    BYTE PTR [rbp-0x421],al
    2a7b:	8a 85 df fb ff ff    	mov    al,BYTE PTR [rbp-0x421]
    2a81:	a8 01                	test   al,0x1
    2a83:	0f 85 05 00 00 00    	jne    2a8e <main+0x127e>
    2a89:	e9 36 00 00 00       	jmp    2ac4 <main+0x12b4>
    2a8e:	48 8b 85 28 fd ff ff 	mov    rax,QWORD PTR [rbp-0x2d8]
    2a95:	48 89 c1             	mov    rcx,rax
    2a98:	48 83 c1 01          	add    rcx,0x1
    2a9c:	48 89 8d 28 fd ff ff 	mov    QWORD PTR [rbp-0x2d8],rcx
    2aa3:	8a 08                	mov    cl,BYTE PTR [rax]
    2aa5:	8b 85 d8 fd ff ff    	mov    eax,DWORD PTR [rbp-0x228]
    2aab:	89 c2                	mov    edx,eax
    2aad:	83 c2 01             	add    edx,0x1
    2ab0:	89 95 d8 fd ff ff    	mov    DWORD PTR [rbp-0x228],edx
    2ab6:	48 98                	cdqe
    2ab8:	88 8c 05 30 fd ff ff 	mov    BYTE PTR [rbp+rax*1-0x2d0],cl
    2abf:	e9 8f ff ff ff       	jmp    2a53 <main+0x1243>
    2ac4:	48 b8 00 00 00 00 00 	movabs rax,0x0
    2acb:	00 00 00 
    2ace:	48 8b 00             	mov    rax,QWORD PTR [rax]
    2ad1:	48 3d 00 00 00 40    	cmp    rax,0x40000000
    2ad7:	0f 82 3c 01 00 00    	jb     2c19 <main+0x1409>
    2add:	48 b8 00 00 00 00 00 	movabs rax,0x0
    2ae4:	00 00 00 
    2ae7:	48 8b 08             	mov    rcx,QWORD PTR [rax]
    2aea:	48 c1 e9 1e          	shr    rcx,0x1e
    2aee:	48 89 8d 20 fd ff ff 	mov    QWORD PTR [rbp-0x2e0],rcx
    2af5:	8b 00                	mov    eax,DWORD PTR [rax]
    2af7:	25 ff ff ff 3f       	and    eax,0x3fffffff
    2afc:	01 c0                	add    eax,eax
    2afe:	48 8d 04 80          	lea    rax,[rax+rax*4]
    2b02:	48 c1 e8 1e          	shr    rax,0x1e
    2b06:	48 89 85 18 fd ff ff 	mov    QWORD PTR [rbp-0x2e8],rax
    2b0d:	48 8b 8d 20 fd ff ff 	mov    rcx,QWORD PTR [rbp-0x2e0]
    2b14:	48 b8 00 00 00 00 00 	movabs rax,0x0
    2b1b:	00 00 00 
    2b1e:	48 89 85 d0 fb ff ff 	mov    QWORD PTR [rbp-0x430],rax
    2b25:	48 8d bd df fd ff ff 	lea    rdi,[rbp-0x221]
    2b2c:	48 89 bd b8 fb ff ff 	mov    QWORD PTR [rbp-0x448],rdi
    2b33:	48 8d b5 30 fd ff ff 	lea    rsi,[rbp-0x2d0]
    2b3a:	48 89 b5 c0 fb ff ff 	mov    QWORD PTR [rbp-0x440],rsi
    2b41:	48 8d 95 d8 fd ff ff 	lea    rdx,[rbp-0x228]
    2b48:	48 89 95 c8 fb ff ff 	mov    QWORD PTR [rbp-0x438],rdx
    2b4f:	ff d0                	call   rax
    2b51:	48 8b bd b8 fb ff ff 	mov    rdi,QWORD PTR [rbp-0x448]
    2b58:	48 8b b5 c0 fb ff ff 	mov    rsi,QWORD PTR [rbp-0x440]
    2b5f:	48 8b 95 c8 fb ff ff 	mov    rdx,QWORD PTR [rbp-0x438]
    2b66:	48 8b 85 d0 fb ff ff 	mov    rax,QWORD PTR [rbp-0x430]
    2b6d:	48 63 8d d8 fd ff ff 	movsxd rcx,DWORD PTR [rbp-0x228]
    2b74:	41 89 c8             	mov    r8d,ecx
    2b77:	41 ff c0             	inc    r8d
    2b7a:	44 89 85 d8 fd ff ff 	mov    DWORD PTR [rbp-0x228],r8d
    2b81:	c6 84 0d 30 fd ff ff 	mov    BYTE PTR [rbp+rcx*1-0x2d0],0x2e
    2b88:	2e 
    2b89:	48 8b 8d 18 fd ff ff 	mov    rcx,QWORD PTR [rbp-0x2e8]
    2b90:	ff d0                	call   rax
    2b92:	48 b8 00 00 00 00 00 	movabs rax,0x0
    2b99:	00 00 00 
    2b9c:	48 89 85 10 fd ff ff 	mov    QWORD PTR [rbp-0x2f0],rax
    2ba3:	48 8b 8d 10 fd ff ff 	mov    rcx,QWORD PTR [rbp-0x2f0]
    2baa:	31 c0                	xor    eax,eax
    2bac:	80 39 00             	cmp    BYTE PTR [rcx],0x0
    2baf:	88 85 b7 fb ff ff    	mov    BYTE PTR [rbp-0x449],al
    2bb5:	0f 84 10 00 00 00    	je     2bcb <main+0x13bb>
    2bbb:	83 bd d8 fd ff ff 3f 	cmp    DWORD PTR [rbp-0x228],0x3f
    2bc2:	0f 9c c0             	setl   al
    2bc5:	88 85 b7 fb ff ff    	mov    BYTE PTR [rbp-0x449],al
    2bcb:	8a 85 b7 fb ff ff    	mov    al,BYTE PTR [rbp-0x449]
    2bd1:	a8 01                	test   al,0x1
    2bd3:	0f 85 05 00 00 00    	jne    2bde <main+0x13ce>
    2bd9:	e9 36 00 00 00       	jmp    2c14 <main+0x1404>
    2bde:	48 8b 85 10 fd ff ff 	mov    rax,QWORD PTR [rbp-0x2f0]
    2be5:	48 89 c1             	mov    rcx,rax
    2be8:	48 83 c1 01          	add    rcx,0x1
    2bec:	48 89 8d 10 fd ff ff 	mov    QWORD PTR [rbp-0x2f0],rcx
    2bf3:	8a 08                	mov    cl,BYTE PTR [rax]
    2bf5:	8b 85 d8 fd ff ff    	mov    eax,DWORD PTR [rbp-0x228]
    2bfb:	89 c2                	mov    edx,eax
    2bfd:	83 c2 01             	add    edx,0x1
    2c00:	89 95 d8 fd ff ff    	mov    DWORD PTR [rbp-0x228],edx
    2c06:	48 98                	cdqe
    2c08:	88 8c 05 30 fd ff ff 	mov    BYTE PTR [rbp+rax*1-0x2d0],cl
    2c0f:	e9 8f ff ff ff       	jmp    2ba3 <main+0x1393>
    2c14:	e9 c7 00 00 00       	jmp    2ce0 <main+0x14d0>
    2c19:	48 b8 00 00 00 00 00 	movabs rax,0x0
    2c20:	00 00 00 
    2c23:	48 8b 00             	mov    rax,QWORD PTR [rax]
    2c26:	48 c1 e8 14          	shr    rax,0x14
    2c2a:	48 89 85 08 fd ff ff 	mov    QWORD PTR [rbp-0x2f8],rax
    2c31:	48 8b 8d 08 fd ff ff 	mov    rcx,QWORD PTR [rbp-0x2f8]
    2c38:	48 b8 00 00 00 00 00 	movabs rax,0x0
    2c3f:	00 00 00 
    2c42:	48 8d bd df fd ff ff 	lea    rdi,[rbp-0x221]
    2c49:	48 8d b5 30 fd ff ff 	lea    rsi,[rbp-0x2d0]
    2c50:	48 8d 95 d8 fd ff ff 	lea    rdx,[rbp-0x228]
    2c57:	ff d0                	call   rax
    2c59:	48 b8 00 00 00 00 00 	movabs rax,0x0
    2c60:	00 00 00 
    2c63:	48 89 85 00 fd ff ff 	mov    QWORD PTR [rbp-0x300],rax
    2c6a:	48 8b 8d 00 fd ff ff 	mov    rcx,QWORD PTR [rbp-0x300]
    2c71:	31 c0                	xor    eax,eax
    2c73:	80 39 00             	cmp    BYTE PTR [rcx],0x0
    2c76:	88 85 b6 fb ff ff    	mov    BYTE PTR [rbp-0x44a],al
    2c7c:	0f 84 10 00 00 00    	je     2c92 <main+0x1482>
    2c82:	83 bd d8 fd ff ff 3f 	cmp    DWORD PTR [rbp-0x228],0x3f
    2c89:	0f 9c c0             	setl   al
    2c8c:	88 85 b6 fb ff ff    	mov    BYTE PTR [rbp-0x44a],al
    2c92:	8a 85 b6 fb ff ff    	mov    al,BYTE PTR [rbp-0x44a]
    2c98:	a8 01                	test   al,0x1
    2c9a:	0f 85 05 00 00 00    	jne    2ca5 <main+0x1495>
    2ca0:	e9 36 00 00 00       	jmp    2cdb <main+0x14cb>
    2ca5:	48 8b 85 00 fd ff ff 	mov    rax,QWORD PTR [rbp-0x300]
    2cac:	48 89 c1             	mov    rcx,rax
    2caf:	48 83 c1 01          	add    rcx,0x1
    2cb3:	48 89 8d 00 fd ff ff 	mov    QWORD PTR [rbp-0x300],rcx
    2cba:	8a 08                	mov    cl,BYTE PTR [rax]
    2cbc:	8b 85 d8 fd ff ff    	mov    eax,DWORD PTR [rbp-0x228]
    2cc2:	89 c2                	mov    edx,eax
    2cc4:	83 c2 01             	add    edx,0x1
    2cc7:	89 95 d8 fd ff ff    	mov    DWORD PTR [rbp-0x228],edx
    2ccd:	48 98                	cdqe
    2ccf:	88 8c 05 30 fd ff ff 	mov    BYTE PTR [rbp+rax*1-0x2d0],cl
    2cd6:	e9 8f ff ff ff       	jmp    2c6a <main+0x145a>
    2cdb:	e9 00 00 00 00       	jmp    2ce0 <main+0x14d0>
    2ce0:	48 b8 00 00 00 00 00 	movabs rax,0x0
    2ce7:	00 00 00 
    2cea:	48 89 85 f8 fc ff ff 	mov    QWORD PTR [rbp-0x308],rax
    2cf1:	48 8b 8d f8 fc ff ff 	mov    rcx,QWORD PTR [rbp-0x308]
    2cf8:	31 c0                	xor    eax,eax
    2cfa:	80 39 00             	cmp    BYTE PTR [rcx],0x0
    2cfd:	88 85 b5 fb ff ff    	mov    BYTE PTR [rbp-0x44b],al
    2d03:	0f 84 10 00 00 00    	je     2d19 <main+0x1509>
    2d09:	83 bd d8 fd ff ff 3f 	cmp    DWORD PTR [rbp-0x228],0x3f
    2d10:	0f 9c c0             	setl   al
    2d13:	88 85 b5 fb ff ff    	mov    BYTE PTR [rbp-0x44b],al
    2d19:	8a 85 b5 fb ff ff    	mov    al,BYTE PTR [rbp-0x44b]
    2d1f:	a8 01                	test   al,0x1
    2d21:	0f 85 05 00 00 00    	jne    2d2c <main+0x151c>
    2d27:	e9 36 00 00 00       	jmp    2d62 <main+0x1552>
    2d2c:	48 8b 85 f8 fc ff ff 	mov    rax,QWORD PTR [rbp-0x308]
    2d33:	48 89 c1             	mov    rcx,rax
    2d36:	48 83 c1 01          	add    rcx,0x1
    2d3a:	48 89 8d f8 fc ff ff 	mov    QWORD PTR [rbp-0x308],rcx
    2d41:	8a 08                	mov    cl,BYTE PTR [rax]
    2d43:	8b 85 d8 fd ff ff    	mov    eax,DWORD PTR [rbp-0x228]
    2d49:	89 c2                	mov    edx,eax
    2d4b:	83 c2 01             	add    edx,0x1
    2d4e:	89 95 d8 fd ff ff    	mov    DWORD PTR [rbp-0x228],edx
    2d54:	48 98                	cdqe
    2d56:	88 8c 05 30 fd ff ff 	mov    BYTE PTR [rbp+rax*1-0x2d0],cl
    2d5d:	e9 8f ff ff ff       	jmp    2cf1 <main+0x14e1>
    2d62:	48 63 85 d8 fd ff ff 	movsxd rax,DWORD PTR [rbp-0x228]
    2d69:	c6 84 05 30 fd ff ff 	mov    BYTE PTR [rbp+rax*1-0x2d0],0x0
    2d70:	00 
    2d71:	48 b8 00 00 00 00 00 	movabs rax,0x0
    2d78:	00 00 00 
    2d7b:	48 8d bd 30 fd ff ff 	lea    rdi,[rbp-0x2d0]
    2d82:	48 89 bd a8 fb ff ff 	mov    QWORD PTR [rbp-0x458],rdi
    2d89:	ff d0                	call   rax
    2d8b:	48 8b 95 a8 fb ff ff 	mov    rdx,QWORD PTR [rbp-0x458]
    2d92:	8b bd ac fe ff ff    	mov    edi,DWORD PTR [rbp-0x154]
    2d98:	8b b5 a8 fe ff ff    	mov    esi,DWORD PTR [rbp-0x158]
    2d9e:	48 b8 00 00 00 00 00 	movabs rax,0x0
    2da5:	00 00 00 
    2da8:	b9 cc cc cc ff       	mov    ecx,0xffcccccc
    2dad:	41 b8 01 00 00 00    	mov    r8d,0x1
    2db3:	ff d0                	call   rax
    2db5:	8b 85 a8 fe ff ff    	mov    eax,DWORD PTR [rbp-0x158]
    2dbb:	83 c0 0c             	add    eax,0xc
    2dbe:	89 85 a8 fe ff ff    	mov    DWORD PTR [rbp-0x158],eax
    2dc4:	48 b8 00 00 00 00 00 	movabs rax,0x0
    2dcb:	00 00 00 
    2dce:	8a 00                	mov    al,BYTE PTR [rax]
    2dd0:	3c 00                	cmp    al,0x0
    2dd2:	0f 84 1a 04 00 00    	je     31f2 <main+0x19e2>
    2dd8:	c7 85 d8 fd ff ff 00 	mov    DWORD PTR [rbp-0x228],0x0
    2ddf:	00 00 00 
    2de2:	48 b8 00 00 00 00 00 	movabs rax,0x0
    2de9:	00 00 00 
    2dec:	48 89 85 a8 fc ff ff 	mov    QWORD PTR [rbp-0x358],rax
    2df3:	48 8b 8d a8 fc ff ff 	mov    rcx,QWORD PTR [rbp-0x358]
    2dfa:	31 c0                	xor    eax,eax
    2dfc:	80 39 00             	cmp    BYTE PTR [rcx],0x0
    2dff:	88 85 a7 fb ff ff    	mov    BYTE PTR [rbp-0x459],al
    2e05:	0f 84 10 00 00 00    	je     2e1b <main+0x160b>
    2e0b:	83 bd d8 fd ff ff 3f 	cmp    DWORD PTR [rbp-0x228],0x3f
    2e12:	0f 9c c0             	setl   al
    2e15:	88 85 a7 fb ff ff    	mov    BYTE PTR [rbp-0x459],al
    2e1b:	8a 85 a7 fb ff ff    	mov    al,BYTE PTR [rbp-0x459]
    2e21:	a8 01                	test   al,0x1
    2e23:	0f 85 05 00 00 00    	jne    2e2e <main+0x161e>
    2e29:	e9 36 00 00 00       	jmp    2e64 <main+0x1654>
    2e2e:	48 8b 85 a8 fc ff ff 	mov    rax,QWORD PTR [rbp-0x358]
    2e35:	48 89 c1             	mov    rcx,rax
    2e38:	48 83 c1 01          	add    rcx,0x1
    2e3c:	48 89 8d a8 fc ff ff 	mov    QWORD PTR [rbp-0x358],rcx
    2e43:	8a 08                	mov    cl,BYTE PTR [rax]
    2e45:	8b 85 d8 fd ff ff    	mov    eax,DWORD PTR [rbp-0x228]
    2e4b:	89 c2                	mov    edx,eax
    2e4d:	83 c2 01             	add    edx,0x1
    2e50:	89 95 d8 fd ff ff    	mov    DWORD PTR [rbp-0x228],edx
    2e56:	48 98                	cdqe
    2e58:	88 8c 05 b0 fc ff ff 	mov    BYTE PTR [rbp+rax*1-0x350],cl
    2e5f:	e9 8f ff ff ff       	jmp    2df3 <main+0x15e3>
    2e64:	48 b8 00 00 00 00 00 	movabs rax,0x0
    2e6b:	00 00 00 
    2e6e:	0f b7 00             	movzx  eax,WORD PTR [rax]
    2e71:	89 c1                	mov    ecx,eax
    2e73:	48 b8 00 00 00 00 00 	movabs rax,0x0
    2e7a:	00 00 00 
    2e7d:	48 8d bd df fd ff ff 	lea    rdi,[rbp-0x221]
    2e84:	48 8d b5 b0 fc ff ff 	lea    rsi,[rbp-0x350]
    2e8b:	48 8d 95 d8 fd ff ff 	lea    rdx,[rbp-0x228]
    2e92:	ff d0                	call   rax
    2e94:	48 63 85 d8 fd ff ff 	movsxd rax,DWORD PTR [rbp-0x228]
    2e9b:	89 c1                	mov    ecx,eax
    2e9d:	ff c1                	inc    ecx
    2e9f:	89 8d d8 fd ff ff    	mov    DWORD PTR [rbp-0x228],ecx
    2ea5:	c6 84 05 b0 fc ff ff 	mov    BYTE PTR [rbp+rax*1-0x350],0x2d
    2eac:	2d 
    2ead:	48 b8 00 00 00 00 00 	movabs rax,0x0
    2eb4:	00 00 00 
    2eb7:	0f b6 08             	movzx  ecx,BYTE PTR [rax]
    2eba:	48 69 d1 9a 99 99 19 	imul   rdx,rcx,0x1999999a
    2ec1:	48 c1 ea 20          	shr    rdx,0x20
    2ec5:	89 d1                	mov    ecx,edx
    2ec7:	48 69 d2 9a 99 99 19 	imul   rdx,rdx,0x1999999a
    2ece:	48 c1 ea 20          	shr    rdx,0x20
    2ed2:	89 d6                	mov    esi,edx
    2ed4:	01 f6                	add    esi,esi
    2ed6:	89 f2                	mov    edx,esi
    2ed8:	8d 14 92             	lea    edx,[rdx+rdx*4]
    2edb:	29 d1                	sub    ecx,edx
    2edd:	88 ca                	mov    dl,cl
    2edf:	80 c2 30             	add    dl,0x30
    2ee2:	48 63 8d d8 fd ff ff 	movsxd rcx,DWORD PTR [rbp-0x228]
    2ee9:	89 ce                	mov    esi,ecx
    2eeb:	ff c6                	inc    esi
    2eed:	89 b5 d8 fd ff ff    	mov    DWORD PTR [rbp-0x228],esi
    2ef3:	88 94 0d b0 fc ff ff 	mov    BYTE PTR [rbp+rcx*1-0x350],dl
    2efa:	0f b6 00             	movzx  eax,BYTE PTR [rax]
    2efd:	89 c1                	mov    ecx,eax
    2eff:	89 c8                	mov    eax,ecx
    2f01:	48 69 c9 9a 99 99 19 	imul   rcx,rcx,0x1999999a
    2f08:	48 c1 e9 20          	shr    rcx,0x20
    2f0c:	89 ca                	mov    edx,ecx
    2f0e:	01 d2                	add    edx,edx
    2f10:	89 d1                	mov    ecx,edx
    2f12:	8d 0c 89             	lea    ecx,[rcx+rcx*4]
    2f15:	29 c8                	sub    eax,ecx
    2f17:	88 c1                	mov    cl,al
    2f19:	80 c1 30             	add    cl,0x30
    2f1c:	48 63 85 d8 fd ff ff 	movsxd rax,DWORD PTR [rbp-0x228]
    2f23:	89 c2                	mov    edx,eax
    2f25:	ff c2                	inc    edx
    2f27:	89 95 d8 fd ff ff    	mov    DWORD PTR [rbp-0x228],edx
    2f2d:	88 8c 05 b0 fc ff ff 	mov    BYTE PTR [rbp+rax*1-0x350],cl
    2f34:	48 63 85 d8 fd ff ff 	movsxd rax,DWORD PTR [rbp-0x228]
    2f3b:	89 c1                	mov    ecx,eax
    2f3d:	ff c1                	inc    ecx
    2f3f:	89 8d d8 fd ff ff    	mov    DWORD PTR [rbp-0x228],ecx
    2f45:	c6 84 05 b0 fc ff ff 	mov    BYTE PTR [rbp+rax*1-0x350],0x2d
    2f4c:	2d 
    2f4d:	48 b8 00 00 00 00 00 	movabs rax,0x0
    2f54:	00 00 00 
    2f57:	0f b6 08             	movzx  ecx,BYTE PTR [rax]
    2f5a:	48 69 d1 9a 99 99 19 	imul   rdx,rcx,0x1999999a
    2f61:	48 c1 ea 20          	shr    rdx,0x20
    2f65:	89 d1                	mov    ecx,edx
    2f67:	48 69 d2 9a 99 99 19 	imul   rdx,rdx,0x1999999a
    2f6e:	48 c1 ea 20          	shr    rdx,0x20
    2f72:	89 d6                	mov    esi,edx
    2f74:	01 f6                	add    esi,esi
    2f76:	89 f2                	mov    edx,esi
    2f78:	8d 14 92             	lea    edx,[rdx+rdx*4]
    2f7b:	29 d1                	sub    ecx,edx
    2f7d:	88 ca                	mov    dl,cl
    2f7f:	80 c2 30             	add    dl,0x30
    2f82:	48 63 8d d8 fd ff ff 	movsxd rcx,DWORD PTR [rbp-0x228]
    2f89:	89 ce                	mov    esi,ecx
    2f8b:	ff c6                	inc    esi
    2f8d:	89 b5 d8 fd ff ff    	mov    DWORD PTR [rbp-0x228],esi
    2f93:	88 94 0d b0 fc ff ff 	mov    BYTE PTR [rbp+rcx*1-0x350],dl
    2f9a:	0f b6 00             	movzx  eax,BYTE PTR [rax]
    2f9d:	89 c1                	mov    ecx,eax
    2f9f:	89 c8                	mov    eax,ecx
    2fa1:	48 69 c9 9a 99 99 19 	imul   rcx,rcx,0x1999999a
    2fa8:	48 c1 e9 20          	shr    rcx,0x20
    2fac:	89 ca                	mov    edx,ecx
    2fae:	01 d2                	add    edx,edx
    2fb0:	89 d1                	mov    ecx,edx
    2fb2:	8d 0c 89             	lea    ecx,[rcx+rcx*4]
    2fb5:	29 c8                	sub    eax,ecx
    2fb7:	88 c1                	mov    cl,al
    2fb9:	80 c1 30             	add    cl,0x30
    2fbc:	48 63 85 d8 fd ff ff 	movsxd rax,DWORD PTR [rbp-0x228]
    2fc3:	89 c2                	mov    edx,eax
    2fc5:	ff c2                	inc    edx
    2fc7:	89 95 d8 fd ff ff    	mov    DWORD PTR [rbp-0x228],edx
    2fcd:	88 8c 05 b0 fc ff ff 	mov    BYTE PTR [rbp+rax*1-0x350],cl
    2fd4:	48 63 85 d8 fd ff ff 	movsxd rax,DWORD PTR [rbp-0x228]
    2fdb:	89 c1                	mov    ecx,eax
    2fdd:	ff c1                	inc    ecx
    2fdf:	89 8d d8 fd ff ff    	mov    DWORD PTR [rbp-0x228],ecx
    2fe5:	c6 84 05 b0 fc ff ff 	mov    BYTE PTR [rbp+rax*1-0x350],0x20
    2fec:	20 
    2fed:	48 b8 00 00 00 00 00 	movabs rax,0x0
    2ff4:	00 00 00 
    2ff7:	0f b6 08             	movzx  ecx,BYTE PTR [rax]
    2ffa:	48 69 d1 9a 99 99 19 	imul   rdx,rcx,0x1999999a
    3001:	48 c1 ea 20          	shr    rdx,0x20
    3005:	89 d1                	mov    ecx,edx
    3007:	48 69 d2 9a 99 99 19 	imul   rdx,rdx,0x1999999a
    300e:	48 c1 ea 20          	shr    rdx,0x20
    3012:	89 d6                	mov    esi,edx
    3014:	01 f6                	add    esi,esi
    3016:	89 f2                	mov    edx,esi
    3018:	8d 14 92             	lea    edx,[rdx+rdx*4]
    301b:	29 d1                	sub    ecx,edx
    301d:	88 ca                	mov    dl,cl
    301f:	80 c2 30             	add    dl,0x30
    3022:	48 63 8d d8 fd ff ff 	movsxd rcx,DWORD PTR [rbp-0x228]
    3029:	89 ce                	mov    esi,ecx
    302b:	ff c6                	inc    esi
    302d:	89 b5 d8 fd ff ff    	mov    DWORD PTR [rbp-0x228],esi
    3033:	88 94 0d b0 fc ff ff 	mov    BYTE PTR [rbp+rcx*1-0x350],dl
    303a:	0f b6 00             	movzx  eax,BYTE PTR [rax]
    303d:	89 c1                	mov    ecx,eax
    303f:	89 c8                	mov    eax,ecx
    3041:	48 69 c9 9a 99 99 19 	imul   rcx,rcx,0x1999999a
    3048:	48 c1 e9 20          	shr    rcx,0x20
    304c:	89 ca                	mov    edx,ecx
    304e:	01 d2                	add    edx,edx
    3050:	89 d1                	mov    ecx,edx
    3052:	8d 0c 89             	lea    ecx,[rcx+rcx*4]
    3055:	29 c8                	sub    eax,ecx
    3057:	88 c1                	mov    cl,al
    3059:	80 c1 30             	add    cl,0x30
    305c:	48 63 85 d8 fd ff ff 	movsxd rax,DWORD PTR [rbp-0x228]
    3063:	89 c2                	mov    edx,eax
    3065:	ff c2                	inc    edx
    3067:	89 95 d8 fd ff ff    	mov    DWORD PTR [rbp-0x228],edx
    306d:	88 8c 05 b0 fc ff ff 	mov    BYTE PTR [rbp+rax*1-0x350],cl
    3074:	48 63 85 d8 fd ff ff 	movsxd rax,DWORD PTR [rbp-0x228]
    307b:	89 c1                	mov    ecx,eax
    307d:	ff c1                	inc    ecx
    307f:	89 8d d8 fd ff ff    	mov    DWORD PTR [rbp-0x228],ecx
    3085:	c6 84 05 b0 fc ff ff 	mov    BYTE PTR [rbp+rax*1-0x350],0x3a
    308c:	3a 
    308d:	48 b8 00 00 00 00 00 	movabs rax,0x0
    3094:	00 00 00 
    3097:	0f b6 08             	movzx  ecx,BYTE PTR [rax]
    309a:	48 69 d1 9a 99 99 19 	imul   rdx,rcx,0x1999999a
    30a1:	48 c1 ea 20          	shr    rdx,0x20
    30a5:	89 d1                	mov    ecx,edx
    30a7:	48 69 d2 9a 99 99 19 	imul   rdx,rdx,0x1999999a
    30ae:	48 c1 ea 20          	shr    rdx,0x20
    30b2:	89 d6                	mov    esi,edx
    30b4:	01 f6                	add    esi,esi
    30b6:	89 f2                	mov    edx,esi
    30b8:	8d 14 92             	lea    edx,[rdx+rdx*4]
    30bb:	29 d1                	sub    ecx,edx
    30bd:	88 ca                	mov    dl,cl
    30bf:	80 c2 30             	add    dl,0x30
    30c2:	48 63 8d d8 fd ff ff 	movsxd rcx,DWORD PTR [rbp-0x228]
    30c9:	89 ce                	mov    esi,ecx
    30cb:	ff c6                	inc    esi
    30cd:	89 b5 d8 fd ff ff    	mov    DWORD PTR [rbp-0x228],esi
    30d3:	88 94 0d b0 fc ff ff 	mov    BYTE PTR [rbp+rcx*1-0x350],dl
    30da:	0f b6 00             	movzx  eax,BYTE PTR [rax]
    30dd:	89 c1                	mov    ecx,eax
    30df:	89 c8                	mov    eax,ecx
    30e1:	48 69 c9 9a 99 99 19 	imul   rcx,rcx,0x1999999a
    30e8:	48 c1 e9 20          	shr    rcx,0x20
    30ec:	89 ca                	mov    edx,ecx
    30ee:	01 d2                	add    edx,edx
    30f0:	89 d1                	mov    ecx,edx
    30f2:	8d 0c 89             	lea    ecx,[rcx+rcx*4]
    30f5:	29 c8                	sub    eax,ecx
    30f7:	88 c1                	mov    cl,al
    30f9:	80 c1 30             	add    cl,0x30
    30fc:	48 63 85 d8 fd ff ff 	movsxd rax,DWORD PTR [rbp-0x228]
    3103:	89 c2                	mov    edx,eax
    3105:	ff c2                	inc    edx
    3107:	89 95 d8 fd ff ff    	mov    DWORD PTR [rbp-0x228],edx
    310d:	88 8c 05 b0 fc ff ff 	mov    BYTE PTR [rbp+rax*1-0x350],cl
    3114:	48 63 85 d8 fd ff ff 	movsxd rax,DWORD PTR [rbp-0x228]
    311b:	89 c1                	mov    ecx,eax
    311d:	ff c1                	inc    ecx
    311f:	89 8d d8 fd ff ff    	mov    DWORD PTR [rbp-0x228],ecx
    3125:	c6 84 05 b0 fc ff ff 	mov    BYTE PTR [rbp+rax*1-0x350],0x3a
    312c:	3a 
    312d:	48 b8 00 00 00 00 00 	movabs rax,0x0
    3134:	00 00 00 
    3137:	0f b6 08             	movzx  ecx,BYTE PTR [rax]
    313a:	48 69 d1 9a 99 99 19 	imul   rdx,rcx,0x1999999a
    3141:	48 c1 ea 20          	shr    rdx,0x20
    3145:	89 d1                	mov    ecx,edx
    3147:	48 69 d2 9a 99 99 19 	imul   rdx,rdx,0x1999999a
    314e:	48 c1 ea 20          	shr    rdx,0x20
    3152:	89 d6                	mov    esi,edx
    3154:	01 f6                	add    esi,esi
    3156:	89 f2                	mov    edx,esi
    3158:	8d 14 92             	lea    edx,[rdx+rdx*4]
    315b:	29 d1                	sub    ecx,edx
    315d:	88 ca                	mov    dl,cl
    315f:	80 c2 30             	add    dl,0x30
    3162:	48 63 8d d8 fd ff ff 	movsxd rcx,DWORD PTR [rbp-0x228]
    3169:	89 ce                	mov    esi,ecx
    316b:	ff c6                	inc    esi
    316d:	89 b5 d8 fd ff ff    	mov    DWORD PTR [rbp-0x228],esi
    3173:	88 94 0d b0 fc ff ff 	mov    BYTE PTR [rbp+rcx*1-0x350],dl
    317a:	8a 00                	mov    al,BYTE PTR [rax]
    317c:	0f b6 c0             	movzx  eax,al
    317f:	b9 0a 00 00 00       	mov    ecx,0xa
    3184:	99                   	cdq
    3185:	f7 f9                	idiv   ecx
    3187:	83 c2 30             	add    edx,0x30
    318a:	88 d1                	mov    cl,dl
    318c:	8b 85 d8 fd ff ff    	mov    eax,DWORD PTR [rbp-0x228]
    3192:	89 c2                	mov    edx,eax
    3194:	83 c2 01             	add    edx,0x1
    3197:	89 95 d8 fd ff ff    	mov    DWORD PTR [rbp-0x228],edx
    319d:	48 98                	cdqe
    319f:	88 8c 05 b0 fc ff ff 	mov    BYTE PTR [rbp+rax*1-0x350],cl
    31a6:	48 63 85 d8 fd ff ff 	movsxd rax,DWORD PTR [rbp-0x228]
    31ad:	c6 84 05 b0 fc ff ff 	mov    BYTE PTR [rbp+rax*1-0x350],0x0
    31b4:	00 
    31b5:	48 8d bd b0 fc ff ff 	lea    rdi,[rbp-0x350]
    31bc:	48 b8 00 00 00 00 00 	movabs rax,0x0
    31c3:	00 00 00 
    31c6:	ff d0                	call   rax
    31c8:	8b bd ac fe ff ff    	mov    edi,DWORD PTR [rbp-0x154]
    31ce:	8b b5 a8 fe ff ff    	mov    esi,DWORD PTR [rbp-0x158]
    31d4:	48 8d 95 b0 fc ff ff 	lea    rdx,[rbp-0x350]
    31db:	48 b8 00 00 00 00 00 	movabs rax,0x0
    31e2:	00 00 00 
    31e5:	b9 cc cc cc ff       	mov    ecx,0xffcccccc
    31ea:	41 b8 01 00 00 00    	mov    r8d,0x1
    31f0:	ff d0                	call   rax
    31f2:	e9 08 01 00 00       	jmp    32ff <main+0x1aef>
    31f7:	48 8b 85 b8 fe ff ff 	mov    rax,QWORD PTR [rbp-0x148]
    31fe:	48 8b 40 18          	mov    rax,QWORD PTR [rax+0x18]
    3202:	0f be 00             	movsx  eax,BYTE PTR [rax]
    3205:	83 f8 4d             	cmp    eax,0x4d
    3208:	0f 85 ec 00 00 00    	jne    32fa <main+0x1aea>
    320e:	48 8b 85 b8 fe ff ff 	mov    rax,QWORD PTR [rbp-0x148]
    3215:	8b 00                	mov    eax,DWORD PTR [rax]
    3217:	83 c0 0a             	add    eax,0xa
    321a:	89 85 a4 fc ff ff    	mov    DWORD PTR [rbp-0x35c],eax
    3220:	48 8b 85 b8 fe ff ff 	mov    rax,QWORD PTR [rbp-0x148]
    3227:	8b 40 04             	mov    eax,DWORD PTR [rax+0x4]
    322a:	83 c0 28             	add    eax,0x28
    322d:	89 85 a0 fc ff ff    	mov    DWORD PTR [rbp-0x360],eax
    3233:	8b bd a4 fc ff ff    	mov    edi,DWORD PTR [rbp-0x35c]
    3239:	8b b5 a0 fc ff ff    	mov    esi,DWORD PTR [rbp-0x360]
    323f:	48 ba 00 00 00 00 00 	movabs rdx,0x0
    3246:	00 00 00 
    3249:	48 b8 00 00 00 00 00 	movabs rax,0x0
    3250:	00 00 00 
    3253:	b9 ff ff ff ff       	mov    ecx,0xffffffff
    3258:	41 b8 02 00 00 00    	mov    r8d,0x2
    325e:	ff d0                	call   rax
    3260:	8b 85 a0 fc ff ff    	mov    eax,DWORD PTR [rbp-0x360]
    3266:	83 c0 1e             	add    eax,0x1e
    3269:	89 85 a0 fc ff ff    	mov    DWORD PTR [rbp-0x360],eax
    326f:	8b bd a4 fc ff ff    	mov    edi,DWORD PTR [rbp-0x35c]
    3275:	8b b5 a0 fc ff ff    	mov    esi,DWORD PTR [rbp-0x360]
    327b:	48 ba 00 00 00 00 00 	movabs rdx,0x0
    3282:	00 00 00 
    3285:	48 b8 00 00 00 00 00 	movabs rax,0x0
    328c:	00 00 00 
    328f:	b9 cc cc cc ff       	mov    ecx,0xffcccccc
    3294:	41 b8 01 00 00 00    	mov    r8d,0x1
    329a:	ff d0                	call   rax
    329c:	8b bd a4 fc ff ff    	mov    edi,DWORD PTR [rbp-0x35c]
    32a2:	8b b5 a0 fc ff ff    	mov    esi,DWORD PTR [rbp-0x360]
    32a8:	83 c6 14             	add    esi,0x14
    32ab:	48 b8 00 00 00 00 00 	movabs rax,0x0
    32b2:	00 00 00 
    32b5:	ba c8 00 00 00       	mov    edx,0xc8
    32ba:	b9 1e 00 00 00       	mov    ecx,0x1e
    32bf:	41 b8 20 20 20 ff    	mov    r8d,0xff202020
    32c5:	ff d0                	call   rax
    32c7:	8b bd a4 fc ff ff    	mov    edi,DWORD PTR [rbp-0x35c]
    32cd:	83 c7 0a             	add    edi,0xa
    32d0:	8b b5 a0 fc ff ff    	mov    esi,DWORD PTR [rbp-0x360]
    32d6:	83 c6 1c             	add    esi,0x1c
    32d9:	48 ba 00 00 00 00 00 	movabs rdx,0x0
    32e0:	00 00 00 
    32e3:	48 b8 00 00 00 00 00 	movabs rax,0x0
    32ea:	00 00 00 
    32ed:	b9 aa aa aa ff       	mov    ecx,0xffaaaaaa
    32f2:	41 b8 01 00 00 00    	mov    r8d,0x1
    32f8:	ff d0                	call   rax
    32fa:	e9 00 00 00 00       	jmp    32ff <main+0x1aef>
    32ff:	e9 00 00 00 00       	jmp    3304 <main+0x1af4>
    3304:	8b 85 c0 fe ff ff    	mov    eax,DWORD PTR [rbp-0x140]
    330a:	83 c0 01             	add    eax,0x1
    330d:	89 85 c0 fe ff ff    	mov    DWORD PTR [rbp-0x140],eax
    3313:	e9 af ef ff ff       	jmp    22c7 <main+0xab7>
    3318:	e9 00 00 00 00       	jmp    331d <main+0x1b0d>
    331d:	48 b8 00 00 00 00 00 	movabs rax,0x0
    3324:	00 00 00 
    3327:	8a 00                	mov    al,BYTE PTR [rax]
    3329:	a8 01                	test   al,0x1
    332b:	0f 84 3c 00 00 00    	je     336d <main+0x1b5d>
    3331:	48 b8 00 00 00 00 00 	movabs rax,0x0
    3338:	00 00 00 
    333b:	ff d0                	call   rax
    333d:	89 85 a0 fb ff ff    	mov    DWORD PTR [rbp-0x460],eax
    3343:	48 b8 00 00 00 00 00 	movabs rax,0x0
    334a:	00 00 00 
    334d:	ff d0                	call   rax
    334f:	8b b5 a0 fb ff ff    	mov    esi,DWORD PTR [rbp-0x460]
    3355:	89 c2                	mov    edx,eax
    3357:	48 bf 00 00 00 00 00 	movabs rdi,0x0
    335e:	00 00 00 
    3361:	48 b8 00 00 00 00 00 	movabs rax,0x0
    3368:	00 00 00 
    336b:	ff d0                	call   rax
    336d:	48 b8 00 00 00 00 00 	movabs rax,0x0
    3374:	00 00 00 
    3377:	ff d0                	call   rax
    3379:	48 b8 00 00 00 00 00 	movabs rax,0x0
    3380:	00 00 00 
    3383:	8b 38                	mov    edi,DWORD PTR [rax]
    3385:	48 b8 00 00 00 00 00 	movabs rax,0x0
    338c:	00 00 00 
    338f:	8b 30                	mov    esi,DWORD PTR [rax]
    3391:	48 b8 00 00 00 00 00 	movabs rax,0x0
    3398:	00 00 00 
    339b:	ff d0                	call   rax
    339d:	48 b8 00 00 00 00 00 	movabs rax,0x0
    33a4:	00 00 00 
    33a7:	ff d0                	call   rax
    33a9:	48 b8 00 00 00 00 00 	movabs rax,0x0
    33b0:	00 00 00 
    33b3:	8b 38                	mov    edi,DWORD PTR [rax]
    33b5:	48 b8 00 00 00 00 00 	movabs rax,0x0
    33bc:	00 00 00 
    33bf:	8b 30                	mov    esi,DWORD PTR [rax]
    33c1:	48 b8 00 00 00 00 00 	movabs rax,0x0
    33c8:	00 00 00 
    33cb:	8b 10                	mov    edx,DWORD PTR [rax]
    33cd:	48 b8 00 00 00 00 00 	movabs rax,0x0
    33d4:	00 00 00 
    33d7:	8b 08                	mov    ecx,DWORD PTR [rax]
    33d9:	48 b8 00 00 00 00 00 	movabs rax,0x0
    33e0:	00 00 00 
    33e3:	ff d0                	call   rax
    33e5:	24 01                	and    al,0x1
    33e7:	88 85 9f fc ff ff    	mov    BYTE PTR [rbp-0x361],al
    33ed:	f6 85 9f fc ff ff 01 	test   BYTE PTR [rbp-0x361],0x1
    33f4:	0f 85 55 00 00 00    	jne    344f <main+0x1c3f>
    33fa:	48 b8 00 00 00 00 00 	movabs rax,0x0
    3401:	00 00 00 
    3404:	ff d0                	call   rax
    3406:	48 89 85 90 fc ff ff 	mov    QWORD PTR [rbp-0x370],rax
    340d:	48 8b 85 90 fc ff ff 	mov    rax,QWORD PTR [rbp-0x370]
    3414:	48 2b 85 f8 fe ff ff 	sub    rax,QWORD PTR [rbp-0x108]
    341b:	48 89 85 88 fc ff ff 	mov    QWORD PTR [rbp-0x378],rax
    3422:	48 83 bd 88 fc ff ff 	cmp    QWORD PTR [rbp-0x378],0x10
    3429:	10 
    342a:	0f 83 1a 00 00 00    	jae    344a <main+0x1c3a>
    3430:	b8 10 00 00 00       	mov    eax,0x10
    3435:	48 2b 85 88 fc ff ff 	sub    rax,QWORD PTR [rbp-0x378]
    343c:	89 c7                	mov    edi,eax
    343e:	48 b8 00 00 00 00 00 	movabs rax,0x0
    3445:	00 00 00 
    3448:	ff d0                	call   rax
    344a:	e9 00 00 00 00       	jmp    344f <main+0x1c3f>
    344f:	48 b8 00 00 00 00 00 	movabs rax,0x0
    3456:	00 00 00 
    3459:	8b 00                	mov    eax,DWORD PTR [rax]
    345b:	89 45 ec             	mov    DWORD PTR [rbp-0x14],eax
    345e:	48 b8 00 00 00 00 00 	movabs rax,0x0
    3465:	00 00 00 
    3468:	8b 00                	mov    eax,DWORD PTR [rax]
    346a:	89 45 e8             	mov    DWORD PTR [rbp-0x18],eax
    346d:	8b 85 e0 fe ff ff    	mov    eax,DWORD PTR [rbp-0x120]
    3473:	89 45 e4             	mov    DWORD PTR [rbp-0x1c],eax
    3476:	48 b8 00 00 00 00 00 	movabs rax,0x0
    347d:	00 00 00 
    3480:	8a 00                	mov    al,BYTE PTR [rax]
    3482:	24 01                	and    al,0x1
    3484:	88 45 e3             	mov    BYTE PTR [rbp-0x1d],al
    3487:	c6 85 07 ff ff ff 00 	mov    BYTE PTR [rbp-0xf9],0x0
    348e:	48 b8 00 00 00 00 00 	movabs rax,0x0
    3495:	00 00 00 
    3498:	c6 00 00             	mov    BYTE PTR [rax],0x0
    349b:	c7 85 84 fc ff ff 00 	mov    DWORD PTR [rbp-0x37c],0x0
    34a2:	00 00 00 
    34a5:	8b 85 84 fc ff ff    	mov    eax,DWORD PTR [rbp-0x37c]
    34ab:	48 b9 00 00 00 00 00 	movabs rcx,0x0
    34b2:	00 00 00 
    34b5:	8b 09                	mov    ecx,DWORD PTR [rcx]
    34b7:	39 c8                	cmp    eax,ecx
    34b9:	0f 8d ce 00 00 00    	jge    358d <main+0x1d7d>
    34bf:	48 63 85 84 fc ff ff 	movsxd rax,DWORD PTR [rbp-0x37c]
    34c6:	48 6b d0 38          	imul   rdx,rax,0x38
    34ca:	48 b9 00 00 00 00 00 	movabs rcx,0x0
    34d1:	00 00 00 
    34d4:	8b 14 0a             	mov    edx,DWORD PTR [rdx+rcx*1]
    34d7:	89 54 85 b0          	mov    DWORD PTR [rbp+rax*4-0x50],edx
    34db:	48 63 85 84 fc ff ff 	movsxd rax,DWORD PTR [rbp-0x37c]
    34e2:	48 6b d0 38          	imul   rdx,rax,0x38
    34e6:	48 be 00 00 00 00 00 	movabs rsi,0x0
    34ed:	00 00 00 
    34f0:	8b 14 32             	mov    edx,DWORD PTR [rdx+rsi*1]
    34f3:	89 54 85 80          	mov    DWORD PTR [rbp+rax*4-0x80],edx
    34f7:	48 63 85 84 fc ff ff 	movsxd rax,DWORD PTR [rbp-0x37c]
    34fe:	48 6b d0 38          	imul   rdx,rax,0x38
    3502:	48 be 00 00 00 00 00 	movabs rsi,0x0
    3509:	00 00 00 
    350c:	8b 14 32             	mov    edx,DWORD PTR [rdx+rsi*1]
    350f:	89 94 85 50 ff ff ff 	mov    DWORD PTR [rbp+rax*4-0xb0],edx
    3516:	48 63 85 84 fc ff ff 	movsxd rax,DWORD PTR [rbp-0x37c]
    351d:	48 6b d0 38          	imul   rdx,rax,0x38
    3521:	48 be 00 00 00 00 00 	movabs rsi,0x0
    3528:	00 00 00 
    352b:	8b 14 32             	mov    edx,DWORD PTR [rdx+rsi*1]
    352e:	89 94 85 20 ff ff ff 	mov    DWORD PTR [rbp+rax*4-0xe0],edx
    3535:	48 63 85 84 fc ff ff 	movsxd rax,DWORD PTR [rbp-0x37c]
    353c:	48 6b d0 38          	imul   rdx,rax,0x38
    3540:	48 be 00 00 00 00 00 	movabs rsi,0x0
    3547:	00 00 00 
    354a:	8a 14 32             	mov    dl,BYTE PTR [rdx+rsi*1]
    354d:	80 e2 01             	and    dl,0x1
    3550:	88 94 05 16 ff ff ff 	mov    BYTE PTR [rbp+rax*1-0xea],dl
    3557:	48 63 85 84 fc ff ff 	movsxd rax,DWORD PTR [rbp-0x37c]
    355e:	48 6b c0 38          	imul   rax,rax,0x38
    3562:	48 01 c8             	add    rax,rcx
    3565:	8a 48 22             	mov    cl,BYTE PTR [rax+0x22]
    3568:	48 63 85 84 fc ff ff 	movsxd rax,DWORD PTR [rbp-0x37c]
    356f:	80 e1 01             	and    cl,0x1
    3572:	88 8c 05 0c ff ff ff 	mov    BYTE PTR [rbp+rax*1-0xf4],cl
    3579:	8b 85 84 fc ff ff    	mov    eax,DWORD PTR [rbp-0x37c]
    357f:	83 c0 01             	add    eax,0x1
    3582:	89 85 84 fc ff ff    	mov    DWORD PTR [rbp-0x37c],eax
    3588:	e9 18 ff ff ff       	jmp    34a5 <main+0x1c95>
    358d:	e9 8a e4 ff ff       	jmp    1a1c <main+0x20c>
    3592:	66 66 66 66 66 2e 0f 	data16 data16 data16 data16 cs nop WORD PTR [rax+rax*1+0x0]
    3599:	1f 84 00 00 00 00 00 

00000000000035a0 <_ZL9DirtyInitR9DirtyRect>:
    35a0:	55                   	push   rbp
    35a1:	48 89 e5             	mov    rbp,rsp
    35a4:	50                   	push   rax
    35a5:	48 89 7d f8          	mov    QWORD PTR [rbp-0x8],rdi
    35a9:	48 8b 45 f8          	mov    rax,QWORD PTR [rbp-0x8]
    35ad:	c6 40 10 00          	mov    BYTE PTR [rax+0x10],0x0
    35b1:	48 8b 45 f8          	mov    rax,QWORD PTR [rbp-0x8]
    35b5:	c7 40 0c 00 00 00 00 	mov    DWORD PTR [rax+0xc],0x0
    35bc:	48 8b 45 f8          	mov    rax,QWORD PTR [rbp-0x8]
    35c0:	c7 40 08 00 00 00 00 	mov    DWORD PTR [rax+0x8],0x0
    35c7:	48 8b 45 f8          	mov    rax,QWORD PTR [rbp-0x8]
    35cb:	c7 40 04 00 00 00 00 	mov    DWORD PTR [rax+0x4],0x0
    35d2:	48 8b 45 f8          	mov    rax,QWORD PTR [rbp-0x8]
    35d6:	c7 00 00 00 00 00    	mov    DWORD PTR [rax],0x0
    35dc:	48 83 c4 08          	add    rsp,0x8
    35e0:	5d                   	pop    rbp
    35e1:	c3                   	ret
    35e2:	66 66 66 66 66 2e 0f 	data16 data16 data16 data16 cs nop WORD PTR [rax+rax*1+0x0]
    35e9:	1f 84 00 00 00 00 00 

00000000000035f0 <_ZL21RefreshTimeAndSysinfov>:
    35f0:	55                   	push   rbp
    35f1:	48 89 e5             	mov    rbp,rsp
    35f4:	48 81 ec 80 00 00 00 	sub    rsp,0x80
    35fb:	48 b8 00 00 00 00 00 	movabs rax,0x0
    3602:	00 00 00 
    3605:	ff d0                	call   rax
    3607:	48 89 45 f8          	mov    QWORD PTR [rbp-0x8],rax
    360b:	48 b8 00 00 00 00 00 	movabs rax,0x0
    3612:	00 00 00 
    3615:	48 8b 00             	mov    rax,QWORD PTR [rax]
    3618:	48 83 f8 00          	cmp    rax,0x0
    361c:	0f 84 20 00 00 00    	je     3642 <_ZL21RefreshTimeAndSysinfov+0x52>
    3622:	48 8b 45 f8          	mov    rax,QWORD PTR [rbp-0x8]
    3626:	48 b9 00 00 00 00 00 	movabs rcx,0x0
    362d:	00 00 00 
    3630:	48 8b 09             	mov    rcx,QWORD PTR [rcx]
    3633:	48 29 c8             	sub    rax,rcx
    3636:	48 3d fa 00 00 00    	cmp    rax,0xfa
    363c:	0f 82 59 00 00 00    	jb     369b <_ZL21RefreshTimeAndSysinfov+0xab>
    3642:	48 b8 00 00 00 00 00 	movabs rax,0x0
    3649:	00 00 00 
    364c:	48 8d 7d ef          	lea    rdi,[rbp-0x11]
    3650:	ff d0                	call   rax
    3652:	83 f8 01             	cmp    eax,0x1
    3655:	0f 85 3b 00 00 00    	jne    3696 <_ZL21RefreshTimeAndSysinfov+0xa6>
    365b:	80 7d f6 00          	cmp    BYTE PTR [rbp-0xa],0x0
    365f:	0f 84 31 00 00 00    	je     3696 <_ZL21RefreshTimeAndSysinfov+0xa6>
    3665:	8a 4d f7             	mov    cl,BYTE PTR [rbp-0x9]
    3668:	48 b8 00 00 00 00 00 	movabs rax,0x0
    366f:	00 00 00 
    3672:	88 08                	mov    BYTE PTR [rax],cl
    3674:	48 8b 4d ef          	mov    rcx,QWORD PTR [rbp-0x11]
    3678:	48 b8 00 00 00 00 00 	movabs rax,0x0
    367f:	00 00 00 
    3682:	48 89 08             	mov    QWORD PTR [rax],rcx
    3685:	48 8b 4d f8          	mov    rcx,QWORD PTR [rbp-0x8]
    3689:	48 b8 00 00 00 00 00 	movabs rax,0x0
    3690:	00 00 00 
    3693:	48 89 08             	mov    QWORD PTR [rax],rcx
    3696:	e9 00 00 00 00       	jmp    369b <_ZL21RefreshTimeAndSysinfov+0xab>
    369b:	48 b8 00 00 00 00 00 	movabs rax,0x0
    36a2:	00 00 00 
    36a5:	8a 00                	mov    al,BYTE PTR [rax]
    36a7:	a8 01                	test   al,0x1
    36a9:	0f 85 af 00 00 00    	jne    375e <_ZL21RefreshTimeAndSysinfov+0x16e>
    36af:	48 b8 00 00 00 00 00 	movabs rax,0x0
    36b6:	00 00 00 
    36b9:	48 8d 7d 81          	lea    rdi,[rbp-0x7f]
    36bd:	ff d0                	call   rax
    36bf:	83 f8 01             	cmp    eax,0x1
    36c2:	0f 85 91 00 00 00    	jne    3759 <_ZL21RefreshTimeAndSysinfov+0x169>
    36c8:	0f 10 45 df          	movups xmm0,XMMWORD PTR [rbp-0x21]
    36cc:	48 b8 00 00 00 00 00 	movabs rax,0x0
    36d3:	00 00 00 
    36d6:	0f 11 00             	movups XMMWORD PTR [rax],xmm0
    36d9:	0f 10 45 d1          	movups xmm0,XMMWORD PTR [rbp-0x2f]
    36dd:	48 b8 00 00 00 00 00 	movabs rax,0x0
    36e4:	00 00 00 
    36e7:	0f 11 00             	movups XMMWORD PTR [rax],xmm0
    36ea:	0f 10 45 c1          	movups xmm0,XMMWORD PTR [rbp-0x3f]
    36ee:	48 b8 00 00 00 00 00 	movabs rax,0x0
    36f5:	00 00 00 
    36f8:	0f 11 00             	movups XMMWORD PTR [rax],xmm0
    36fb:	0f 10 45 81          	movups xmm0,XMMWORD PTR [rbp-0x7f]
    36ff:	0f 10 4d 91          	movups xmm1,XMMWORD PTR [rbp-0x6f]
    3703:	0f 10 55 a1          	movups xmm2,XMMWORD PTR [rbp-0x5f]
    3707:	0f 10 5d b1          	movups xmm3,XMMWORD PTR [rbp-0x4f]
    370b:	48 b8 00 00 00 00 00 	movabs rax,0x0
    3712:	00 00 00 
    3715:	0f 11 18             	movups XMMWORD PTR [rax],xmm3
    3718:	48 b8 00 00 00 00 00 	movabs rax,0x0
    371f:	00 00 00 
    3722:	0f 11 10             	movups XMMWORD PTR [rax],xmm2
    3725:	48 b8 00 00 00 00 00 	movabs rax,0x0
    372c:	00 00 00 
    372f:	0f 11 08             	movups XMMWORD PTR [rax],xmm1
    3732:	48 b8 00 00 00 00 00 	movabs rax,0x0
    3739:	00 00 00 
    373c:	0f 11 00             	movups XMMWORD PTR [rax],xmm0
    373f:	48 b8 00 00 00 00 00 	movabs rax,0x0
    3746:	00 00 00 
    3749:	c6 00 01             	mov    BYTE PTR [rax],0x1
    374c:	48 b8 00 00 00 00 00 	movabs rax,0x0
    3753:	00 00 00 
    3756:	c6 00 01             	mov    BYTE PTR [rax],0x1
    3759:	e9 00 00 00 00       	jmp    375e <_ZL21RefreshTimeAndSysinfov+0x16e>
    375e:	48 81 c4 80 00 00 00 	add    rsp,0x80
    3765:	5d                   	pop    rbp
    3766:	c3                   	ret
    3767:	66 0f 1f 84 00 00 00 	nop    WORD PTR [rax+rax*1+0x0]
    376e:	00 00 

0000000000003770 <_ZL8DirtyAddR9DirtyRectiiii>:
    3770:	55                   	push   rbp
    3771:	48 89 e5             	mov    rbp,rsp
    3774:	48 83 ec 40          	sub    rsp,0x40
    3778:	48 89 7d f8          	mov    QWORD PTR [rbp-0x8],rdi
    377c:	89 75 f4             	mov    DWORD PTR [rbp-0xc],esi
    377f:	89 55 f0             	mov    DWORD PTR [rbp-0x10],edx
    3782:	89 4d ec             	mov    DWORD PTR [rbp-0x14],ecx
    3785:	44 89 45 e8          	mov    DWORD PTR [rbp-0x18],r8d
    3789:	83 7d ec 00          	cmp    DWORD PTR [rbp-0x14],0x0
    378d:	0f 8e 0a 00 00 00    	jle    379d <_ZL8DirtyAddR9DirtyRectiiii+0x2d>
    3793:	83 7d e8 00          	cmp    DWORD PTR [rbp-0x18],0x0
    3797:	0f 8f 05 00 00 00    	jg     37a2 <_ZL8DirtyAddR9DirtyRectiiii+0x32>
    379d:	e9 36 01 00 00       	jmp    38d8 <_ZL8DirtyAddR9DirtyRectiiii+0x168>
    37a2:	48 8b 45 f8          	mov    rax,QWORD PTR [rbp-0x8]
    37a6:	f6 40 10 01          	test   BYTE PTR [rax+0x10],0x1
    37aa:	0f 85 34 00 00 00    	jne    37e4 <_ZL8DirtyAddR9DirtyRectiiii+0x74>
    37b0:	8b 4d f4             	mov    ecx,DWORD PTR [rbp-0xc]
    37b3:	48 8b 45 f8          	mov    rax,QWORD PTR [rbp-0x8]
    37b7:	89 08                	mov    DWORD PTR [rax],ecx
    37b9:	8b 4d f0             	mov    ecx,DWORD PTR [rbp-0x10]
    37bc:	48 8b 45 f8          	mov    rax,QWORD PTR [rbp-0x8]
    37c0:	89 48 04             	mov    DWORD PTR [rax+0x4],ecx
    37c3:	8b 4d ec             	mov    ecx,DWORD PTR [rbp-0x14]
    37c6:	48 8b 45 f8          	mov    rax,QWORD PTR [rbp-0x8]
    37ca:	89 48 08             	mov    DWORD PTR [rax+0x8],ecx
    37cd:	8b 4d e8             	mov    ecx,DWORD PTR [rbp-0x18]
    37d0:	48 8b 45 f8          	mov    rax,QWORD PTR [rbp-0x8]
    37d4:	89 48 0c             	mov    DWORD PTR [rax+0xc],ecx
    37d7:	48 8b 45 f8          	mov    rax,QWORD PTR [rbp-0x8]
    37db:	c6 40 10 01          	mov    BYTE PTR [rax+0x10],0x1
    37df:	e9 f4 00 00 00       	jmp    38d8 <_ZL8DirtyAddR9DirtyRectiiii+0x168>
    37e4:	48 8b 45 f8          	mov    rax,QWORD PTR [rbp-0x8]
    37e8:	8b 00                	mov    eax,DWORD PTR [rax]
    37ea:	48 8b 4d f8          	mov    rcx,QWORD PTR [rbp-0x8]
    37ee:	03 41 08             	add    eax,DWORD PTR [rcx+0x8]
    37f1:	89 45 e4             	mov    DWORD PTR [rbp-0x1c],eax
    37f4:	48 8b 45 f8          	mov    rax,QWORD PTR [rbp-0x8]
    37f8:	8b 40 04             	mov    eax,DWORD PTR [rax+0x4]
    37fb:	48 8b 4d f8          	mov    rcx,QWORD PTR [rbp-0x8]
    37ff:	03 41 0c             	add    eax,DWORD PTR [rcx+0xc]
    3802:	89 45 e0             	mov    DWORD PTR [rbp-0x20],eax
    3805:	8b 45 f4             	mov    eax,DWORD PTR [rbp-0xc]
    3808:	48 8b 4d f8          	mov    rcx,QWORD PTR [rbp-0x8]
    380c:	3b 01                	cmp    eax,DWORD PTR [rcx]
    380e:	0f 8d 0b 00 00 00    	jge    381f <_ZL8DirtyAddR9DirtyRectiiii+0xaf>
    3814:	8b 45 f4             	mov    eax,DWORD PTR [rbp-0xc]
    3817:	89 45 cc             	mov    DWORD PTR [rbp-0x34],eax
    381a:	e9 09 00 00 00       	jmp    3828 <_ZL8DirtyAddR9DirtyRectiiii+0xb8>
    381f:	48 8b 45 f8          	mov    rax,QWORD PTR [rbp-0x8]
    3823:	8b 00                	mov    eax,DWORD PTR [rax]
    3825:	89 45 cc             	mov    DWORD PTR [rbp-0x34],eax
    3828:	8b 45 cc             	mov    eax,DWORD PTR [rbp-0x34]
    382b:	89 45 dc             	mov    DWORD PTR [rbp-0x24],eax
    382e:	8b 45 f0             	mov    eax,DWORD PTR [rbp-0x10]
    3831:	48 8b 4d f8          	mov    rcx,QWORD PTR [rbp-0x8]
    3835:	3b 41 04             	cmp    eax,DWORD PTR [rcx+0x4]
    3838:	0f 8d 0b 00 00 00    	jge    3849 <_ZL8DirtyAddR9DirtyRectiiii+0xd9>
    383e:	8b 45 f0             	mov    eax,DWORD PTR [rbp-0x10]
    3841:	89 45 c8             	mov    DWORD PTR [rbp-0x38],eax
    3844:	e9 0a 00 00 00       	jmp    3853 <_ZL8DirtyAddR9DirtyRectiiii+0xe3>
    3849:	48 8b 45 f8          	mov    rax,QWORD PTR [rbp-0x8]
    384d:	8b 40 04             	mov    eax,DWORD PTR [rax+0x4]
    3850:	89 45 c8             	mov    DWORD PTR [rbp-0x38],eax
    3853:	8b 45 c8             	mov    eax,DWORD PTR [rbp-0x38]
    3856:	89 45 d8             	mov    DWORD PTR [rbp-0x28],eax
    3859:	8b 45 f4             	mov    eax,DWORD PTR [rbp-0xc]
    385c:	03 45 ec             	add    eax,DWORD PTR [rbp-0x14]
    385f:	3b 45 e4             	cmp    eax,DWORD PTR [rbp-0x1c]
    3862:	0f 8e 0e 00 00 00    	jle    3876 <_ZL8DirtyAddR9DirtyRectiiii+0x106>
    3868:	8b 45 f4             	mov    eax,DWORD PTR [rbp-0xc]
    386b:	03 45 ec             	add    eax,DWORD PTR [rbp-0x14]
    386e:	89 45 c4             	mov    DWORD PTR [rbp-0x3c],eax
    3871:	e9 06 00 00 00       	jmp    387c <_ZL8DirtyAddR9DirtyRectiiii+0x10c>
    3876:	8b 45 e4             	mov    eax,DWORD PTR [rbp-0x1c]
    3879:	89 45 c4             	mov    DWORD PTR [rbp-0x3c],eax
    387c:	8b 45 c4             	mov    eax,DWORD PTR [rbp-0x3c]
    387f:	89 45 d4             	mov    DWORD PTR [rbp-0x2c],eax
    3882:	8b 45 f0             	mov    eax,DWORD PTR [rbp-0x10]
    3885:	03 45 e8             	add    eax,DWORD PTR [rbp-0x18]
    3888:	3b 45 e0             	cmp    eax,DWORD PTR [rbp-0x20]
    388b:	0f 8e 0e 00 00 00    	jle    389f <_ZL8DirtyAddR9DirtyRectiiii+0x12f>
    3891:	8b 45 f0             	mov    eax,DWORD PTR [rbp-0x10]
    3894:	03 45 e8             	add    eax,DWORD PTR [rbp-0x18]
    3897:	89 45 c0             	mov    DWORD PTR [rbp-0x40],eax
    389a:	e9 06 00 00 00       	jmp    38a5 <_ZL8DirtyAddR9DirtyRectiiii+0x135>
    389f:	8b 45 e0             	mov    eax,DWORD PTR [rbp-0x20]
    38a2:	89 45 c0             	mov    DWORD PTR [rbp-0x40],eax
    38a5:	8b 45 c0             	mov    eax,DWORD PTR [rbp-0x40]
    38a8:	89 45 d0             	mov    DWORD PTR [rbp-0x30],eax
    38ab:	8b 4d dc             	mov    ecx,DWORD PTR [rbp-0x24]
    38ae:	48 8b 45 f8          	mov    rax,QWORD PTR [rbp-0x8]
    38b2:	89 08                	mov    DWORD PTR [rax],ecx
    38b4:	8b 4d d8             	mov    ecx,DWORD PTR [rbp-0x28]
    38b7:	48 8b 45 f8          	mov    rax,QWORD PTR [rbp-0x8]
    38bb:	89 48 04             	mov    DWORD PTR [rax+0x4],ecx
    38be:	8b 4d d4             	mov    ecx,DWORD PTR [rbp-0x2c]
    38c1:	2b 4d dc             	sub    ecx,DWORD PTR [rbp-0x24]
    38c4:	48 8b 45 f8          	mov    rax,QWORD PTR [rbp-0x8]
    38c8:	89 48 08             	mov    DWORD PTR [rax+0x8],ecx
    38cb:	8b 4d d0             	mov    ecx,DWORD PTR [rbp-0x30]
    38ce:	2b 4d d8             	sub    ecx,DWORD PTR [rbp-0x28]
    38d1:	48 8b 45 f8          	mov    rax,QWORD PTR [rbp-0x8]
    38d5:	89 48 0c             	mov    DWORD PTR [rax+0xc],ecx
    38d8:	48 83 c4 40          	add    rsp,0x40
    38dc:	5d                   	pop    rbp
    38dd:	c3                   	ret
    38de:	66 90                	xchg   ax,ax

00000000000038e0 <_ZL15GetClockSecondsv>:
    38e0:	55                   	push   rbp
    38e1:	48 89 e5             	mov    rbp,rsp
    38e4:	48 83 ec 10          	sub    rsp,0x10
    38e8:	48 b8 00 00 00 00 00 	movabs rax,0x0
    38ef:	00 00 00 
    38f2:	8a 00                	mov    al,BYTE PTR [rax]
    38f4:	3c 00                	cmp    al,0x0
    38f6:	0f 84 3e 00 00 00    	je     393a <_ZL15GetClockSecondsv+0x5a>
    38fc:	48 b8 00 00 00 00 00 	movabs rax,0x0
    3903:	00 00 00 
    3906:	0f b6 00             	movzx  eax,BYTE PTR [rax]
    3909:	69 c0 10 0e 00 00    	imul   eax,eax,0xe10
    390f:	48 b9 00 00 00 00 00 	movabs rcx,0x0
    3916:	00 00 00 
    3919:	0f b6 09             	movzx  ecx,BYTE PTR [rcx]
    391c:	6b c9 3c             	imul   ecx,ecx,0x3c
    391f:	01 c8                	add    eax,ecx
    3921:	48 b9 00 00 00 00 00 	movabs rcx,0x0
    3928:	00 00 00 
    392b:	8a 09                	mov    cl,BYTE PTR [rcx]
    392d:	0f b6 c9             	movzx  ecx,cl
    3930:	01 c8                	add    eax,ecx
    3932:	89 45 fc             	mov    DWORD PTR [rbp-0x4],eax
    3935:	e9 19 00 00 00       	jmp    3953 <_ZL15GetClockSecondsv+0x73>
    393a:	48 b8 00 00 00 00 00 	movabs rax,0x0
    3941:	00 00 00 
    3944:	ff d0                	call   rax
    3946:	b9 e8 03 00 00       	mov    ecx,0x3e8
    394b:	31 d2                	xor    edx,edx
    394d:	48 f7 f1             	div    rcx
    3950:	89 45 fc             	mov    DWORD PTR [rbp-0x4],eax
    3953:	8b 45 fc             	mov    eax,DWORD PTR [rbp-0x4]
    3956:	48 83 c4 10          	add    rsp,0x10
    395a:	5d                   	pop    rbp
    395b:	c3                   	ret
    395c:	0f 1f 40 00          	nop    DWORD PTR [rax+0x0]

0000000000003960 <_ZZ4mainENK3$_0clEPcRim>:
    3960:	55                   	push   rbp
    3961:	48 89 e5             	mov    rbp,rsp
    3964:	48 83 ec 50          	sub    rsp,0x50
    3968:	48 89 7d f8          	mov    QWORD PTR [rbp-0x8],rdi
    396c:	48 89 75 f0          	mov    QWORD PTR [rbp-0x10],rsi
    3970:	48 89 55 e8          	mov    QWORD PTR [rbp-0x18],rdx
    3974:	48 89 4d e0          	mov    QWORD PTR [rbp-0x20],rcx
    3978:	c7 45 bc 00 00 00 00 	mov    DWORD PTR [rbp-0x44],0x0
    397f:	48 83 7d e0 00       	cmp    QWORD PTR [rbp-0x20],0x0
    3984:	0f 85 12 00 00 00    	jne    399c <_ZZ4mainENK3$_0clEPcRim+0x3c>
    398a:	8b 45 bc             	mov    eax,DWORD PTR [rbp-0x44]
    398d:	89 c1                	mov    ecx,eax
    398f:	83 c1 01             	add    ecx,0x1
    3992:	89 4d bc             	mov    DWORD PTR [rbp-0x44],ecx
    3995:	48 98                	cdqe
    3997:	c6 44 05 c0 30       	mov    BYTE PTR [rbp+rax*1-0x40],0x30
    399c:	e9 00 00 00 00       	jmp    39a1 <_ZZ4mainENK3$_0clEPcRim+0x41>
    39a1:	31 c0                	xor    eax,eax
    39a3:	48 83 7d e0 00       	cmp    QWORD PTR [rbp-0x20],0x0
    39a8:	88 45 b7             	mov    BYTE PTR [rbp-0x49],al
    39ab:	0f 84 0a 00 00 00    	je     39bb <_ZZ4mainENK3$_0clEPcRim+0x5b>
    39b1:	83 7d bc 17          	cmp    DWORD PTR [rbp-0x44],0x17
    39b5:	0f 9c c0             	setl   al
    39b8:	88 45 b7             	mov    BYTE PTR [rbp-0x49],al
    39bb:	8a 45 b7             	mov    al,BYTE PTR [rbp-0x49]
    39be:	a8 01                	test   al,0x1
    39c0:	0f 85 05 00 00 00    	jne    39cb <_ZZ4mainENK3$_0clEPcRim+0x6b>
    39c6:	e9 3c 00 00 00       	jmp    3a07 <_ZZ4mainENK3$_0clEPcRim+0xa7>
    39cb:	48 8b 45 e0          	mov    rax,QWORD PTR [rbp-0x20]
    39cf:	b9 0a 00 00 00       	mov    ecx,0xa
    39d4:	31 d2                	xor    edx,edx
    39d6:	48 f7 f1             	div    rcx
    39d9:	48 83 c2 30          	add    rdx,0x30
    39dd:	88 d1                	mov    cl,dl
    39df:	8b 45 bc             	mov    eax,DWORD PTR [rbp-0x44]
    39e2:	89 c2                	mov    edx,eax
    39e4:	83 c2 01             	add    edx,0x1
    39e7:	89 55 bc             	mov    DWORD PTR [rbp-0x44],edx
    39ea:	48 98                	cdqe
    39ec:	88 4c 05 c0          	mov    BYTE PTR [rbp+rax*1-0x40],cl
    39f0:	48 8b 45 e0          	mov    rax,QWORD PTR [rbp-0x20]
    39f4:	b9 0a 00 00 00       	mov    ecx,0xa
    39f9:	31 d2                	xor    edx,edx
    39fb:	48 f7 f1             	div    rcx
    39fe:	48 89 45 e0          	mov    QWORD PTR [rbp-0x20],rax
    3a02:	e9 9a ff ff ff       	jmp    39a1 <_ZZ4mainENK3$_0clEPcRim+0x41>
    3a07:	8b 45 bc             	mov    eax,DWORD PTR [rbp-0x44]
    3a0a:	83 e8 01             	sub    eax,0x1
    3a0d:	89 45 b8             	mov    DWORD PTR [rbp-0x48],eax
    3a10:	83 7d b8 00          	cmp    DWORD PTR [rbp-0x48],0x0
    3a14:	0f 8c 2d 00 00 00    	jl     3a47 <_ZZ4mainENK3$_0clEPcRim+0xe7>
    3a1a:	48 63 45 b8          	movsxd rax,DWORD PTR [rbp-0x48]
    3a1e:	8a 54 05 c0          	mov    dl,BYTE PTR [rbp+rax*1-0x40]
    3a22:	48 8b 45 f0          	mov    rax,QWORD PTR [rbp-0x10]
    3a26:	48 8b 75 e8          	mov    rsi,QWORD PTR [rbp-0x18]
    3a2a:	8b 0e                	mov    ecx,DWORD PTR [rsi]
    3a2c:	89 cf                	mov    edi,ecx
    3a2e:	83 c7 01             	add    edi,0x1
    3a31:	89 3e                	mov    DWORD PTR [rsi],edi
    3a33:	48 63 c9             	movsxd rcx,ecx
    3a36:	88 14 08             	mov    BYTE PTR [rax+rcx*1],dl
    3a39:	8b 45 b8             	mov    eax,DWORD PTR [rbp-0x48]
    3a3c:	83 c0 ff             	add    eax,0xffffffff
    3a3f:	89 45 b8             	mov    DWORD PTR [rbp-0x48],eax
    3a42:	e9 c9 ff ff ff       	jmp    3a10 <_ZZ4mainENK3$_0clEPcRim+0xb0>
    3a47:	48 83 c4 50          	add    rsp,0x50
    3a4b:	5d                   	pop    rbp
    3a4c:	c3                   	ret

Disassembly of section .ltext._ZN10Compositor9GetHeightEv:

0000000000000000 <_ZN10Compositor9GetHeightEv>:
   0:	55                   	push   rbp
   1:	48 89 e5             	mov    rbp,rsp
   4:	48 b8 00 00 00 00 00 	movabs rax,0x0
   b:	00 00 00 
   e:	8b 00                	mov    eax,DWORD PTR [rax]
  10:	5d                   	pop    rbp
  11:	c3                   	ret

Disassembly of section .ltext._ZN10Compositor8GetWidthEv:

0000000000000000 <_ZN10Compositor8GetWidthEv>:
   0:	55                   	push   rbp
   1:	48 89 e5             	mov    rbp,rsp
   4:	48 b8 00 00 00 00 00 	movabs rax,0x0
   b:	00 00 00 
   e:	8b 00                	mov    eax,DWORD PTR [rax]
  10:	5d                   	pop    rbp
  11:	c3                   	ret

Disassembly of section .ltext._ZN8Launcher11HandleClickEii:

0000000000000000 <_ZN8Launcher11HandleClickEii>:
   0:	55                   	push   rbp
   1:	48 89 e5             	mov    rbp,rsp
   4:	48 83 ec 60          	sub    rsp,0x60
   8:	48 89 7d f0          	mov    QWORD PTR [rbp-0x10],rdi
   c:	89 75 ec             	mov    DWORD PTR [rbp-0x14],esi
   f:	89 55 e8             	mov    DWORD PTR [rbp-0x18],edx
  12:	48 8b 45 f0          	mov    rax,QWORD PTR [rbp-0x10]
  16:	48 89 45 a0          	mov    QWORD PTR [rbp-0x60],rax
  1a:	48 b8 00 00 00 00 00 	movabs rax,0x0
  21:	00 00 00 
  24:	ff d0                	call   rax
  26:	89 45 e4             	mov    DWORD PTR [rbp-0x1c],eax
  29:	c7 45 e0 05 00 00 00 	mov    DWORD PTR [rbp-0x20],0x5
  30:	c7 45 dc 50 00 00 00 	mov    DWORD PTR [rbp-0x24],0x50
  37:	c7 45 d8 3c 00 00 00 	mov    DWORD PTR [rbp-0x28],0x3c
  3e:	c7 45 d4 3c 00 00 00 	mov    DWORD PTR [rbp-0x2c],0x3c
  45:	8b 45 e0             	mov    eax,DWORD PTR [rbp-0x20]
  48:	0f af 45 dc          	imul   eax,DWORD PTR [rbp-0x24]
  4c:	8b 4d e0             	mov    ecx,DWORD PTR [rbp-0x20]
  4f:	83 e9 01             	sub    ecx,0x1
  52:	0f af 4d d8          	imul   ecx,DWORD PTR [rbp-0x28]
  56:	01 c8                	add    eax,ecx
  58:	89 45 d0             	mov    DWORD PTR [rbp-0x30],eax
  5b:	8b 45 e4             	mov    eax,DWORD PTR [rbp-0x1c]
  5e:	2b 45 d0             	sub    eax,DWORD PTR [rbp-0x30]
  61:	b9 02 00 00 00       	mov    ecx,0x2
  66:	99                   	cdq
  67:	f7 f9                	idiv   ecx
  69:	89 45 cc             	mov    DWORD PTR [rbp-0x34],eax
  6c:	c7 45 c8 a0 00 00 00 	mov    DWORD PTR [rbp-0x38],0xa0
  73:	c7 45 c4 00 00 00 00 	mov    DWORD PTR [rbp-0x3c],0x0
  7a:	48 8b 4d a0          	mov    rcx,QWORD PTR [rbp-0x60]
  7e:	8b 45 c4             	mov    eax,DWORD PTR [rbp-0x3c]
  81:	3b 81 80 02 00 00    	cmp    eax,DWORD PTR [rcx+0x280]
  87:	0f 8d f8 00 00 00    	jge    185 <_ZN8Launcher11HandleClickEii+0x185>
  8d:	8b 45 c4             	mov    eax,DWORD PTR [rbp-0x3c]
  90:	99                   	cdq
  91:	f7 7d e0             	idiv   DWORD PTR [rbp-0x20]
  94:	89 55 c0             	mov    DWORD PTR [rbp-0x40],edx
  97:	8b 45 c4             	mov    eax,DWORD PTR [rbp-0x3c]
  9a:	99                   	cdq
  9b:	f7 7d e0             	idiv   DWORD PTR [rbp-0x20]
  9e:	89 45 bc             	mov    DWORD PTR [rbp-0x44],eax
  a1:	8b 45 cc             	mov    eax,DWORD PTR [rbp-0x34]
  a4:	8b 4d c0             	mov    ecx,DWORD PTR [rbp-0x40]
  a7:	8b 55 dc             	mov    edx,DWORD PTR [rbp-0x24]
  aa:	03 55 d8             	add    edx,DWORD PTR [rbp-0x28]
  ad:	0f af ca             	imul   ecx,edx
  b0:	01 c8                	add    eax,ecx
  b2:	89 45 b8             	mov    DWORD PTR [rbp-0x48],eax
  b5:	8b 45 c8             	mov    eax,DWORD PTR [rbp-0x38]
  b8:	8b 4d bc             	mov    ecx,DWORD PTR [rbp-0x44]
  bb:	8b 55 dc             	mov    edx,DWORD PTR [rbp-0x24]
  be:	03 55 d4             	add    edx,DWORD PTR [rbp-0x2c]
  c1:	0f af ca             	imul   ecx,edx
  c4:	01 c8                	add    eax,ecx
  c6:	89 45 b4             	mov    DWORD PTR [rbp-0x4c],eax
  c9:	8b 45 dc             	mov    eax,DWORD PTR [rbp-0x24]
  cc:	89 45 b0             	mov    DWORD PTR [rbp-0x50],eax
  cf:	8b 45 dc             	mov    eax,DWORD PTR [rbp-0x24]
  d2:	89 45 ac             	mov    DWORD PTR [rbp-0x54],eax
  d5:	8b 45 ec             	mov    eax,DWORD PTR [rbp-0x14]
  d8:	3b 45 b8             	cmp    eax,DWORD PTR [rbp-0x48]
  db:	0f 8c 91 00 00 00    	jl     172 <_ZN8Launcher11HandleClickEii+0x172>
  e1:	8b 45 ec             	mov    eax,DWORD PTR [rbp-0x14]
  e4:	8b 4d b8             	mov    ecx,DWORD PTR [rbp-0x48]
  e7:	03 4d b0             	add    ecx,DWORD PTR [rbp-0x50]
  ea:	39 c8                	cmp    eax,ecx
  ec:	0f 8d 80 00 00 00    	jge    172 <_ZN8Launcher11HandleClickEii+0x172>
  f2:	8b 45 e8             	mov    eax,DWORD PTR [rbp-0x18]
  f5:	3b 45 b4             	cmp    eax,DWORD PTR [rbp-0x4c]
  f8:	0f 8c 74 00 00 00    	jl     172 <_ZN8Launcher11HandleClickEii+0x172>
  fe:	8b 45 e8             	mov    eax,DWORD PTR [rbp-0x18]
 101:	8b 4d b4             	mov    ecx,DWORD PTR [rbp-0x4c]
 104:	03 4d ac             	add    ecx,DWORD PTR [rbp-0x54]
 107:	39 c8                	cmp    eax,ecx
 109:	0f 8d 63 00 00 00    	jge    172 <_ZN8Launcher11HandleClickEii+0x172>
 10f:	48 8b 45 a0          	mov    rax,QWORD PTR [rbp-0x60]
 113:	48 63 4d c4          	movsxd rcx,DWORD PTR [rbp-0x3c]
 117:	48 6b c9 28          	imul   rcx,rcx,0x28
 11b:	48 01 c8             	add    rax,rcx
 11e:	48 83 78 08 00       	cmp    QWORD PTR [rax+0x8],0x0
 123:	0f 84 44 00 00 00    	je     16d <_ZN8Launcher11HandleClickEii+0x16d>
 129:	48 8b 45 a0          	mov    rax,QWORD PTR [rbp-0x60]
 12d:	48 63 4d c4          	movsxd rcx,DWORD PTR [rbp-0x3c]
 131:	48 6b c9 28          	imul   rcx,rcx,0x28
 135:	48 01 c8             	add    rax,rcx
 138:	48 8b 40 08          	mov    rax,QWORD PTR [rax+0x8]
 13c:	80 38 00             	cmp    BYTE PTR [rax],0x0
 13f:	0f 84 28 00 00 00    	je     16d <_ZN8Launcher11HandleClickEii+0x16d>
 145:	48 8b 45 a0          	mov    rax,QWORD PTR [rbp-0x60]
 149:	48 63 4d c4          	movsxd rcx,DWORD PTR [rbp-0x3c]
 14d:	48 6b c9 28          	imul   rcx,rcx,0x28
 151:	48 01 c8             	add    rax,rcx
 154:	48 8b 78 08          	mov    rdi,QWORD PTR [rax+0x8]
 158:	48 b8 00 00 00 00 00 	movabs rax,0x0
 15f:	00 00 00 
 162:	ff d0                	call   rax
 164:	c6 45 ff 01          	mov    BYTE PTR [rbp-0x1],0x1
 168:	e9 1c 00 00 00       	jmp    189 <_ZN8Launcher11HandleClickEii+0x189>
 16d:	e9 00 00 00 00       	jmp    172 <_ZN8Launcher11HandleClickEii+0x172>
 172:	e9 00 00 00 00       	jmp    177 <_ZN8Launcher11HandleClickEii+0x177>
 177:	8b 45 c4             	mov    eax,DWORD PTR [rbp-0x3c]
 17a:	83 c0 01             	add    eax,0x1
 17d:	89 45 c4             	mov    DWORD PTR [rbp-0x3c],eax
 180:	e9 f5 fe ff ff       	jmp    7a <_ZN8Launcher11HandleClickEii+0x7a>
 185:	c6 45 ff 00          	mov    BYTE PTR [rbp-0x1],0x0
 189:	8a 45 ff             	mov    al,BYTE PTR [rbp-0x1]
 18c:	24 01                	and    al,0x1
 18e:	0f b6 c0             	movzx  eax,al
 191:	48 83 c4 60          	add    rsp,0x60
 195:	5d                   	pop    rbp
 196:	c3                   	ret

Disassembly of section .ltext._ZN8Launcher4InitEv:

0000000000000000 <_ZN8Launcher4InitEv>:
   0:	55                   	push   rbp
   1:	48 89 e5             	mov    rbp,rsp
   4:	48 81 ec d0 00 00 00 	sub    rsp,0xd0
   b:	48 89 7d f8          	mov    QWORD PTR [rbp-0x8],rdi
   f:	48 8b 45 f8          	mov    rax,QWORD PTR [rbp-0x8]
  13:	48 b9 00 00 00 00 00 	movabs rcx,0x0
  1a:	00 00 00 
  1d:	48 89 4d d0          	mov    QWORD PTR [rbp-0x30],rcx
  21:	48 b9 00 00 00 00 00 	movabs rcx,0x0
  28:	00 00 00 
  2b:	48 89 4d d8          	mov    QWORD PTR [rbp-0x28],rcx
  2f:	c7 45 e0 50 50 e0 ff 	mov    DWORD PTR [rbp-0x20],0xffe05050
  36:	c7 45 e4 00 00 00 00 	mov    DWORD PTR [rbp-0x1c],0x0
  3d:	c7 45 e8 00 00 00 00 	mov    DWORD PTR [rbp-0x18],0x0
  44:	c7 45 ec 01 00 00 00 	mov    DWORD PTR [rbp-0x14],0x1
  4b:	c7 45 f0 01 00 00 00 	mov    DWORD PTR [rbp-0x10],0x1
  52:	48 8b 4d f0          	mov    rcx,QWORD PTR [rbp-0x10]
  56:	48 89 48 20          	mov    QWORD PTR [rax+0x20],rcx
  5a:	0f 10 45 d0          	movups xmm0,XMMWORD PTR [rbp-0x30]
  5e:	0f 10 4d e0          	movups xmm1,XMMWORD PTR [rbp-0x20]
  62:	0f 11 48 10          	movups XMMWORD PTR [rax+0x10],xmm1
  66:	0f 11 00             	movups XMMWORD PTR [rax],xmm0
  69:	48 b9 00 00 00 00 00 	movabs rcx,0x0
  70:	00 00 00 
  73:	48 89 4d a8          	mov    QWORD PTR [rbp-0x58],rcx
  77:	48 b9 00 00 00 00 00 	movabs rcx,0x0
  7e:	00 00 00 
  81:	48 89 4d b0          	mov    QWORD PTR [rbp-0x50],rcx
  85:	c7 45 b8 40 a0 40 ff 	mov    DWORD PTR [rbp-0x48],0xff40a040
  8c:	c7 45 bc 01 00 00 00 	mov    DWORD PTR [rbp-0x44],0x1
  93:	c7 45 c0 00 00 00 00 	mov    DWORD PTR [rbp-0x40],0x0
  9a:	c7 45 c4 02 00 00 00 	mov    DWORD PTR [rbp-0x3c],0x2
  a1:	c7 45 c8 01 00 00 00 	mov    DWORD PTR [rbp-0x38],0x1
  a8:	48 8b 4d c8          	mov    rcx,QWORD PTR [rbp-0x38]
  ac:	48 89 48 48          	mov    QWORD PTR [rax+0x48],rcx
  b0:	0f 10 45 a8          	movups xmm0,XMMWORD PTR [rbp-0x58]
  b4:	0f 10 4d b8          	movups xmm1,XMMWORD PTR [rbp-0x48]
  b8:	0f 11 48 38          	movups XMMWORD PTR [rax+0x38],xmm1
  bc:	0f 11 40 28          	movups XMMWORD PTR [rax+0x28],xmm0
  c0:	48 b9 00 00 00 00 00 	movabs rcx,0x0
  c7:	00 00 00 
  ca:	48 89 4d 80          	mov    QWORD PTR [rbp-0x80],rcx
  ce:	48 b9 00 00 00 00 00 	movabs rcx,0x0
  d5:	00 00 00 
  d8:	48 89 4d 88          	mov    QWORD PTR [rbp-0x78],rcx
  dc:	c7 45 90 a0 80 40 ff 	mov    DWORD PTR [rbp-0x70],0xff4080a0
  e3:	c7 45 94 03 00 00 00 	mov    DWORD PTR [rbp-0x6c],0x3
  ea:	c7 45 98 00 00 00 00 	mov    DWORD PTR [rbp-0x68],0x0
  f1:	c7 45 9c 01 00 00 00 	mov    DWORD PTR [rbp-0x64],0x1
  f8:	c7 45 a0 01 00 00 00 	mov    DWORD PTR [rbp-0x60],0x1
  ff:	48 8b 55 a0          	mov    rdx,QWORD PTR [rbp-0x60]
 103:	48 89 50 70          	mov    QWORD PTR [rax+0x70],rdx
 107:	0f 10 45 80          	movups xmm0,XMMWORD PTR [rbp-0x80]
 10b:	0f 10 4d 90          	movups xmm1,XMMWORD PTR [rbp-0x70]
 10f:	0f 11 48 60          	movups XMMWORD PTR [rax+0x60],xmm1
 113:	0f 11 40 50          	movups XMMWORD PTR [rax+0x50],xmm0
 117:	48 ba 00 00 00 00 00 	movabs rdx,0x0
 11e:	00 00 00 
 121:	48 89 95 58 ff ff ff 	mov    QWORD PTR [rbp-0xa8],rdx
 128:	48 89 8d 60 ff ff ff 	mov    QWORD PTR [rbp-0xa0],rcx
 12f:	c7 85 68 ff ff ff 40 	mov    DWORD PTR [rbp-0x98],0xffcca040
 136:	a0 cc ff 
 139:	c7 85 6c ff ff ff 00 	mov    DWORD PTR [rbp-0x94],0x0
 140:	00 00 00 
 143:	c7 85 70 ff ff ff 01 	mov    DWORD PTR [rbp-0x90],0x1
 14a:	00 00 00 
 14d:	c7 85 74 ff ff ff 01 	mov    DWORD PTR [rbp-0x8c],0x1
 154:	00 00 00 
 157:	c7 85 78 ff ff ff 01 	mov    DWORD PTR [rbp-0x88],0x1
 15e:	00 00 00 
 161:	48 8b 95 78 ff ff ff 	mov    rdx,QWORD PTR [rbp-0x88]
 168:	48 89 90 98 00 00 00 	mov    QWORD PTR [rax+0x98],rdx
 16f:	0f 10 85 58 ff ff ff 	movups xmm0,XMMWORD PTR [rbp-0xa8]
 176:	0f 10 8d 68 ff ff ff 	movups xmm1,XMMWORD PTR [rbp-0x98]
 17d:	0f 11 88 88 00 00 00 	movups XMMWORD PTR [rax+0x88],xmm1
 184:	0f 11 40 78          	movups XMMWORD PTR [rax+0x78],xmm0
 188:	48 ba 00 00 00 00 00 	movabs rdx,0x0
 18f:	00 00 00 
 192:	48 89 95 30 ff ff ff 	mov    QWORD PTR [rbp-0xd0],rdx
 199:	48 89 8d 38 ff ff ff 	mov    QWORD PTR [rbp-0xc8],rcx
 1a0:	c7 85 40 ff ff ff a0 	mov    DWORD PTR [rbp-0xc0],0xffa040a0
 1a7:	40 a0 ff 
 1aa:	c7 85 44 ff ff ff 01 	mov    DWORD PTR [rbp-0xbc],0x1
 1b1:	00 00 00 
 1b4:	c7 85 48 ff ff ff 01 	mov    DWORD PTR [rbp-0xb8],0x1
 1bb:	00 00 00 
 1be:	c7 85 4c ff ff ff 01 	mov    DWORD PTR [rbp-0xb4],0x1
 1c5:	00 00 00 
 1c8:	c7 85 50 ff ff ff 01 	mov    DWORD PTR [rbp-0xb0],0x1
 1cf:	00 00 00 
 1d2:	48 89 c1             	mov    rcx,rax
 1d5:	48 81 c1 a0 00 00 00 	add    rcx,0xa0
 1dc:	48 8b 95 50 ff ff ff 	mov    rdx,QWORD PTR [rbp-0xb0]
 1e3:	48 89 51 20          	mov    QWORD PTR [rcx+0x20],rdx
 1e7:	0f 10 85 30 ff ff ff 	movups xmm0,XMMWORD PTR [rbp-0xd0]
 1ee:	0f 10 8d 40 ff ff ff 	movups xmm1,XMMWORD PTR [rbp-0xc0]
 1f5:	0f 11 49 10          	movups XMMWORD PTR [rcx+0x10],xmm1
 1f9:	0f 11 01             	movups XMMWORD PTR [rcx],xmm0
 1fc:	c7 80 80 02 00 00 05 	mov    DWORD PTR [rax+0x280],0x5
 203:	00 00 00 
 206:	48 81 c4 d0 00 00 00 	add    rsp,0xd0
 20d:	5d                   	pop    rbp
 20e:	c3                   	ret

Disassembly of section .ltext._ZN8Launcher4DrawEii:

0000000000000000 <_ZN8Launcher4DrawEii>:
   0:	55                   	push   rbp
   1:	48 89 e5             	mov    rbp,rsp
   4:	48 81 ec a0 00 00 00 	sub    rsp,0xa0
   b:	48 89 7d f8          	mov    QWORD PTR [rbp-0x8],rdi
   f:	89 75 f4             	mov    DWORD PTR [rbp-0xc],esi
  12:	89 55 f0             	mov    DWORD PTR [rbp-0x10],edx
  15:	48 8b 45 f8          	mov    rax,QWORD PTR [rbp-0x8]
  19:	48 89 85 68 ff ff ff 	mov    QWORD PTR [rbp-0x98],rax
  20:	8b 55 f4             	mov    edx,DWORD PTR [rbp-0xc]
  23:	8b 4d f0             	mov    ecx,DWORD PTR [rbp-0x10]
  26:	48 b8 00 00 00 00 00 	movabs rax,0x0
  2d:	00 00 00 
  30:	48 89 85 70 ff ff ff 	mov    QWORD PTR [rbp-0x90],rax
  37:	31 f6                	xor    esi,esi
  39:	41 b8 00 00 00 d0    	mov    r8d,0xd0000000
  3f:	89 f7                	mov    edi,esi
  41:	ff d0                	call   rax
  43:	48 8b 85 70 ff ff ff 	mov    rax,QWORD PTR [rbp-0x90]
  4a:	c7 45 ec 2c 01 00 00 	mov    DWORD PTR [rbp-0x14],0x12c
  51:	c7 45 e8 22 00 00 00 	mov    DWORD PTR [rbp-0x18],0x22
  58:	8b 4d f4             	mov    ecx,DWORD PTR [rbp-0xc]
  5b:	8b 55 ec             	mov    edx,DWORD PTR [rbp-0x14]
  5e:	29 d1                	sub    ecx,edx
  60:	89 ca                	mov    edx,ecx
  62:	c1 ea 1f             	shr    edx,0x1f
  65:	01 d1                	add    ecx,edx
  67:	d1 f9                	sar    ecx,1
  69:	89 4d e4             	mov    DWORD PTR [rbp-0x1c],ecx
  6c:	c7 45 e0 3c 00 00 00 	mov    DWORD PTR [rbp-0x20],0x3c
  73:	8b 7d e4             	mov    edi,DWORD PTR [rbp-0x1c]
  76:	8b 75 e0             	mov    esi,DWORD PTR [rbp-0x20]
  79:	8b 55 ec             	mov    edx,DWORD PTR [rbp-0x14]
  7c:	8b 4d e8             	mov    ecx,DWORD PTR [rbp-0x18]
  7f:	41 b8 ff ff ff 40    	mov    r8d,0x40ffffff
  85:	ff d0                	call   rax
  87:	48 b8 00 00 00 00 00 	movabs rax,0x0
  8e:	00 00 00 
  91:	48 89 45 d8          	mov    QWORD PTR [rbp-0x28],rax
  95:	8b 7d e4             	mov    edi,DWORD PTR [rbp-0x1c]
  98:	83 c7 6e             	add    edi,0x6e
  9b:	8b 75 e0             	mov    esi,DWORD PTR [rbp-0x20]
  9e:	83 c6 09             	add    esi,0x9
  a1:	48 8b 55 d8          	mov    rdx,QWORD PTR [rbp-0x28]
  a5:	48 b8 00 00 00 00 00 	movabs rax,0x0
  ac:	00 00 00 
  af:	b9 ff ff ff 80       	mov    ecx,0x80ffffff
  b4:	41 b8 01 00 00 00    	mov    r8d,0x1
  ba:	ff d0                	call   rax
  bc:	c7 45 d4 05 00 00 00 	mov    DWORD PTR [rbp-0x2c],0x5
  c3:	c7 45 d0 50 00 00 00 	mov    DWORD PTR [rbp-0x30],0x50
  ca:	c7 45 cc 3c 00 00 00 	mov    DWORD PTR [rbp-0x34],0x3c
  d1:	c7 45 c8 3c 00 00 00 	mov    DWORD PTR [rbp-0x38],0x3c
  d8:	8b 45 d4             	mov    eax,DWORD PTR [rbp-0x2c]
  db:	0f af 45 d0          	imul   eax,DWORD PTR [rbp-0x30]
  df:	8b 4d d4             	mov    ecx,DWORD PTR [rbp-0x2c]
  e2:	83 e9 01             	sub    ecx,0x1
  e5:	0f af 4d cc          	imul   ecx,DWORD PTR [rbp-0x34]
  e9:	01 c8                	add    eax,ecx
  eb:	89 45 c4             	mov    DWORD PTR [rbp-0x3c],eax
  ee:	8b 45 f4             	mov    eax,DWORD PTR [rbp-0xc]
  f1:	2b 45 c4             	sub    eax,DWORD PTR [rbp-0x3c]
  f4:	b9 02 00 00 00       	mov    ecx,0x2
  f9:	99                   	cdq
  fa:	f7 f9                	idiv   ecx
  fc:	89 45 c0             	mov    DWORD PTR [rbp-0x40],eax
  ff:	c7 45 bc a0 00 00 00 	mov    DWORD PTR [rbp-0x44],0xa0
 106:	c7 45 b8 00 00 00 00 	mov    DWORD PTR [rbp-0x48],0x0
 10d:	48 8b 8d 68 ff ff ff 	mov    rcx,QWORD PTR [rbp-0x98]
 114:	8b 45 b8             	mov    eax,DWORD PTR [rbp-0x48]
 117:	3b 81 80 02 00 00    	cmp    eax,DWORD PTR [rcx+0x280]
 11d:	0f 8d ae 01 00 00    	jge    2d1 <_ZN8Launcher4DrawEii+0x2d1>
 123:	8b 45 b8             	mov    eax,DWORD PTR [rbp-0x48]
 126:	99                   	cdq
 127:	f7 7d d4             	idiv   DWORD PTR [rbp-0x2c]
 12a:	89 55 b4             	mov    DWORD PTR [rbp-0x4c],edx
 12d:	8b 45 b8             	mov    eax,DWORD PTR [rbp-0x48]
 130:	99                   	cdq
 131:	f7 7d d4             	idiv   DWORD PTR [rbp-0x2c]
 134:	89 c1                	mov    ecx,eax
 136:	48 8b 85 68 ff ff ff 	mov    rax,QWORD PTR [rbp-0x98]
 13d:	89 4d b0             	mov    DWORD PTR [rbp-0x50],ecx
 140:	8b 4d c0             	mov    ecx,DWORD PTR [rbp-0x40]
 143:	8b 55 b4             	mov    edx,DWORD PTR [rbp-0x4c]
 146:	8b 75 d0             	mov    esi,DWORD PTR [rbp-0x30]
 149:	03 75 cc             	add    esi,DWORD PTR [rbp-0x34]
 14c:	0f af d6             	imul   edx,esi
 14f:	01 d1                	add    ecx,edx
 151:	89 4d ac             	mov    DWORD PTR [rbp-0x54],ecx
 154:	8b 4d bc             	mov    ecx,DWORD PTR [rbp-0x44]
 157:	8b 55 b0             	mov    edx,DWORD PTR [rbp-0x50]
 15a:	8b 75 d0             	mov    esi,DWORD PTR [rbp-0x30]
 15d:	03 75 c8             	add    esi,DWORD PTR [rbp-0x38]
 160:	0f af d6             	imul   edx,esi
 163:	01 d1                	add    ecx,edx
 165:	89 4d a8             	mov    DWORD PTR [rbp-0x58],ecx
 168:	48 63 4d b8          	movsxd rcx,DWORD PTR [rbp-0x48]
 16c:	48 6b d1 28          	imul   rdx,rcx,0x28
 170:	48 89 c1             	mov    rcx,rax
 173:	48 01 d1             	add    rcx,rdx
 176:	8b 49 10             	mov    ecx,DWORD PTR [rcx+0x10]
 179:	89 4d a4             	mov    DWORD PTR [rbp-0x5c],ecx
 17c:	48 63 4d b8          	movsxd rcx,DWORD PTR [rbp-0x48]
 180:	48 6b c9 28          	imul   rcx,rcx,0x28
 184:	48 01 c8             	add    rax,rcx
 187:	48 8b 00             	mov    rax,QWORD PTR [rax]
 18a:	0f be 00             	movsx  eax,BYTE PTR [rax]
 18d:	83 f8 43             	cmp    eax,0x43
 190:	0f 85 07 00 00 00    	jne    19d <_ZN8Launcher4DrawEii+0x19d>
 196:	c7 45 a4 40 40 40 ff 	mov    DWORD PTR [rbp-0x5c],0xff404040
 19d:	48 8b 85 68 ff ff ff 	mov    rax,QWORD PTR [rbp-0x98]
 1a4:	48 63 4d b8          	movsxd rcx,DWORD PTR [rbp-0x48]
 1a8:	48 6b c9 28          	imul   rcx,rcx,0x28
 1ac:	48 01 c8             	add    rax,rcx
 1af:	48 8b 00             	mov    rax,QWORD PTR [rax]
 1b2:	0f be 00             	movsx  eax,BYTE PTR [rax]
 1b5:	83 f8 54             	cmp    eax,0x54
 1b8:	0f 85 07 00 00 00    	jne    1c5 <_ZN8Launcher4DrawEii+0x1c5>
 1be:	c7 45 a4 20 20 20 ff 	mov    DWORD PTR [rbp-0x5c],0xff202020
 1c5:	48 8b 85 68 ff ff ff 	mov    rax,QWORD PTR [rbp-0x98]
 1cc:	48 63 4d b8          	movsxd rcx,DWORD PTR [rbp-0x48]
 1d0:	48 6b c9 28          	imul   rcx,rcx,0x28
 1d4:	48 01 c8             	add    rax,rcx
 1d7:	48 8b 00             	mov    rax,QWORD PTR [rax]
 1da:	0f be 00             	movsx  eax,BYTE PTR [rax]
 1dd:	83 f8 53             	cmp    eax,0x53
 1e0:	0f 85 07 00 00 00    	jne    1ed <_ZN8Launcher4DrawEii+0x1ed>
 1e6:	c7 45 a4 a0 80 40 ff 	mov    DWORD PTR [rbp-0x5c],0xff4080a0
 1ed:	8b 7d ac             	mov    edi,DWORD PTR [rbp-0x54]
 1f0:	8b 75 a8             	mov    esi,DWORD PTR [rbp-0x58]
 1f3:	8b 55 d0             	mov    edx,DWORD PTR [rbp-0x30]
 1f6:	8b 4d d0             	mov    ecx,DWORD PTR [rbp-0x30]
 1f9:	44 8b 45 a4          	mov    r8d,DWORD PTR [rbp-0x5c]
 1fd:	48 b8 00 00 00 00 00 	movabs rax,0x0
 204:	00 00 00 
 207:	ff d0                	call   rax
 209:	8b 7d ac             	mov    edi,DWORD PTR [rbp-0x54]
 20c:	8b 75 a8             	mov    esi,DWORD PTR [rbp-0x58]
 20f:	8b 45 d0             	mov    eax,DWORD PTR [rbp-0x30]
 212:	89 85 64 ff ff ff    	mov    DWORD PTR [rbp-0x9c],eax
 218:	8b 45 d0             	mov    eax,DWORD PTR [rbp-0x30]
 21b:	b9 02 00 00 00       	mov    ecx,0x2
 220:	99                   	cdq
 221:	f7 f9                	idiv   ecx
 223:	8b 95 64 ff ff ff    	mov    edx,DWORD PTR [rbp-0x9c]
 229:	89 c1                	mov    ecx,eax
 22b:	48 b8 00 00 00 00 00 	movabs rax,0x0
 232:	00 00 00 
 235:	41 b8 ff ff ff 20    	mov    r8d,0x20ffffff
 23b:	ff d0                	call   rax
 23d:	48 8b bd 68 ff ff ff 	mov    rdi,QWORD PTR [rbp-0x98]
 244:	48 63 45 b8          	movsxd rax,DWORD PTR [rbp-0x48]
 248:	48 6b c8 28          	imul   rcx,rax,0x28
 24c:	48 89 f8             	mov    rax,rdi
 24f:	48 01 c8             	add    rax,rcx
 252:	48 8b 30             	mov    rsi,QWORD PTR [rax]
 255:	48 b8 00 00 00 00 00 	movabs rax,0x0
 25c:	00 00 00 
 25f:	ff d0                	call   rax
 261:	89 45 a0             	mov    DWORD PTR [rbp-0x60],eax
 264:	8b 45 a0             	mov    eax,DWORD PTR [rbp-0x60]
 267:	c1 e0 03             	shl    eax,0x3
 26a:	89 45 9c             	mov    DWORD PTR [rbp-0x64],eax
 26d:	8b 4d ac             	mov    ecx,DWORD PTR [rbp-0x54]
 270:	8b 45 d0             	mov    eax,DWORD PTR [rbp-0x30]
 273:	2b 45 9c             	sub    eax,DWORD PTR [rbp-0x64]
 276:	be 02 00 00 00       	mov    esi,0x2
 27b:	99                   	cdq
 27c:	f7 fe                	idiv   esi
 27e:	89 c2                	mov    edx,eax
 280:	48 8b 85 68 ff ff ff 	mov    rax,QWORD PTR [rbp-0x98]
 287:	01 d1                	add    ecx,edx
 289:	89 4d 98             	mov    DWORD PTR [rbp-0x68],ecx
 28c:	8b 4d a8             	mov    ecx,DWORD PTR [rbp-0x58]
 28f:	03 4d d0             	add    ecx,DWORD PTR [rbp-0x30]
 292:	83 c1 0a             	add    ecx,0xa
 295:	89 4d 94             	mov    DWORD PTR [rbp-0x6c],ecx
 298:	8b 7d 98             	mov    edi,DWORD PTR [rbp-0x68]
 29b:	8b 75 94             	mov    esi,DWORD PTR [rbp-0x6c]
 29e:	48 63 4d b8          	movsxd rcx,DWORD PTR [rbp-0x48]
 2a2:	48 6b c9 28          	imul   rcx,rcx,0x28
 2a6:	48 01 c8             	add    rax,rcx
 2a9:	48 8b 10             	mov    rdx,QWORD PTR [rax]
 2ac:	48 b8 00 00 00 00 00 	movabs rax,0x0
 2b3:	00 00 00 
 2b6:	b9 e0 e0 e0 ff       	mov    ecx,0xffe0e0e0
 2bb:	41 b8 01 00 00 00    	mov    r8d,0x1
 2c1:	ff d0                	call   rax
 2c3:	8b 45 b8             	mov    eax,DWORD PTR [rbp-0x48]
 2c6:	83 c0 01             	add    eax,0x1
 2c9:	89 45 b8             	mov    DWORD PTR [rbp-0x48],eax
 2cc:	e9 3c fe ff ff       	jmp    10d <_ZN8Launcher4DrawEii+0x10d>
 2d1:	8b 45 f0             	mov    eax,DWORD PTR [rbp-0x10]
 2d4:	83 e8 78             	sub    eax,0x78
 2d7:	89 45 90             	mov    DWORD PTR [rbp-0x70],eax
 2da:	c7 45 8c 08 00 00 00 	mov    DWORD PTR [rbp-0x74],0x8
 2e1:	c7 45 88 0c 00 00 00 	mov    DWORD PTR [rbp-0x78],0xc
 2e8:	c7 45 84 02 00 00 00 	mov    DWORD PTR [rbp-0x7c],0x2
 2ef:	8b 45 84             	mov    eax,DWORD PTR [rbp-0x7c]
 2f2:	0f af 45 8c          	imul   eax,DWORD PTR [rbp-0x74]
 2f6:	8b 4d 84             	mov    ecx,DWORD PTR [rbp-0x7c]
 2f9:	83 e9 01             	sub    ecx,0x1
 2fc:	0f af 4d 88          	imul   ecx,DWORD PTR [rbp-0x78]
 300:	01 c8                	add    eax,ecx
 302:	89 45 80             	mov    DWORD PTR [rbp-0x80],eax
 305:	8b 45 f4             	mov    eax,DWORD PTR [rbp-0xc]
 308:	2b 45 80             	sub    eax,DWORD PTR [rbp-0x80]
 30b:	b9 02 00 00 00       	mov    ecx,0x2
 310:	99                   	cdq
 311:	f7 f9                	idiv   ecx
 313:	89 85 7c ff ff ff    	mov    DWORD PTR [rbp-0x84],eax
 319:	8b bd 7c ff ff ff    	mov    edi,DWORD PTR [rbp-0x84]
 31f:	8b 75 90             	mov    esi,DWORD PTR [rbp-0x70]
 322:	8b 55 8c             	mov    edx,DWORD PTR [rbp-0x74]
 325:	8b 4d 8c             	mov    ecx,DWORD PTR [rbp-0x74]
 328:	48 b8 00 00 00 00 00 	movabs rax,0x0
 32f:	00 00 00 
 332:	41 b8 ff ff ff ff    	mov    r8d,0xffffffff
 338:	ff d0                	call   rax
 33a:	8b bd 7c ff ff ff    	mov    edi,DWORD PTR [rbp-0x84]
 340:	03 7d 8c             	add    edi,DWORD PTR [rbp-0x74]
 343:	03 7d 88             	add    edi,DWORD PTR [rbp-0x78]
 346:	8b 75 90             	mov    esi,DWORD PTR [rbp-0x70]
 349:	8b 55 8c             	mov    edx,DWORD PTR [rbp-0x74]
 34c:	8b 4d 8c             	mov    ecx,DWORD PTR [rbp-0x74]
 34f:	48 b8 00 00 00 00 00 	movabs rax,0x0
 356:	00 00 00 
 359:	41 b8 ff ff ff 80    	mov    r8d,0x80ffffff
 35f:	ff d0                	call   rax
 361:	48 81 c4 a0 00 00 00 	add    rsp,0xa0
 368:	5d                   	pop    rbp
 369:	c3                   	ret

Disassembly of section .ltext._ZN8Launcher6StrLenEPKc:

0000000000000000 <_ZN8Launcher6StrLenEPKc>:
   0:	55                   	push   rbp
   1:	48 89 e5             	mov    rbp,rsp
   4:	48 83 ec 18          	sub    rsp,0x18
   8:	48 89 7d f8          	mov    QWORD PTR [rbp-0x8],rdi
   c:	48 89 75 f0          	mov    QWORD PTR [rbp-0x10],rsi
  10:	c7 45 ec 00 00 00 00 	mov    DWORD PTR [rbp-0x14],0x0
  17:	48 8b 45 f0          	mov    rax,QWORD PTR [rbp-0x10]
  1b:	48 63 4d ec          	movsxd rcx,DWORD PTR [rbp-0x14]
  1f:	80 3c 08 00          	cmp    BYTE PTR [rax+rcx*1],0x0
  23:	0f 84 0e 00 00 00    	je     37 <_ZN8Launcher6StrLenEPKc+0x37>
  29:	8b 45 ec             	mov    eax,DWORD PTR [rbp-0x14]
  2c:	83 c0 01             	add    eax,0x1
  2f:	89 45 ec             	mov    DWORD PTR [rbp-0x14],eax
  32:	e9 e0 ff ff ff       	jmp    17 <_ZN8Launcher6StrLenEPKc+0x17>
  37:	8b 45 ec             	mov    eax,DWORD PTR [rbp-0x14]
  3a:	48 83 c4 18          	add    rsp,0x18
  3e:	5d                   	pop    rbp
  3f:	c3                   	ret
